(dp1
I1
(lp2
I38
aI84
aI90
aI133
aI134
aI168
aI171
aI172
aI205
aI233
aI237
aI263
asI2
(lp3
I76
aI107
asI3
(lp4
I38
aI171
aI172
aI194
asI4
(lp5
I10
aI140
asI5
(lp6
I109
asI6
(lp7
I193
aI201
aI203
asI8
(lp8
I88
asI9
(lp9
I175
asI10
(lp10
I143
asI11
(lp11
I22
asI12
(lp12
I87
aI113
aI114
asI13
(lp13
I169
asI14
(lp14
I169
asI15
(lp15
I148
asI16
(lp16
I166
asI17
(lp17
I130
asI18
(lp18
I65
asI19
(lp19
I121
asI20
(lp20
I123
aI175
asI21
(lp21
I24
asI22
(lp22
I44
asI23
(lp23
I220
asI24
(lp24
I65
aI161
asI25
(lp25
I66
asI26
(lp26
I52
aI65
aI67
aI69
asI27
(lp27
I151
asI28
(lp28
I149
asI29
(lp29
I157
asI30
(lp30
I69
asI31
(lp31
I69
asI32
(lp32
I165
asI33
(lp33
I147
asI34
(lp34
I38
aI134
asI35
(lp35
I157
asI36
(lp36
I223
asI37
(lp37
I62
aI223
asI38
(lp38
I99
aI136
as.