(dp1
I1
(lp2
I42
aI93
aI145
asI2
(lp3
I178
asI3
(lp4
I69
asI4
(lp5
I178
asI5
(lp6
I87
asI6
(lp7
I103
aI178
asI7
(lp8
I34
aI162
asI8
(lp9
I40
asI9
(lp10
I136
asI10
(lp11
I125
asI11
(lp12
I178
asI12
(lp13
I69
asI13
(lp14
I93
asI14
(lp15
I22
aI47
asI15
(lp16
I69
asI16
(lp17
I93
aI161
asI17
(lp18
I178
asI18
(lp19
I93
asI19
(lp20
I179
asI20
(lp21
I132
asI21
(lp22
I27
asI22
(lp23
I27
asI23
(lp24
I125
asI24
(lp25
I161
asI25
(lp26
I179
asI26
(lp27
I42
aI136
asI27
(lp28
I206
asI28
(lp29
I85
aI86
asI29
(lp30
I87
aI93
asI30
(lp31
I69
asI31
(lp32
I42
asI32
(lp33
I93
aI202
asI33
(lp34
I178
asI34
(lp35
I37
asI35
(lp36
I178
asI36
(lp37
I93
asI37
(lp38
I93
asI38
(lp39
I37
asI39
(lp40
I218
asI40
(lp41
I93
aI111
asI41
(lp42
I103
aI178
asI42
(lp43
I204
asI43
(lp44
I178
asI44
(lp45
I37
asI45
(lp46
I145
asI46
(lp47
I214
aI218
asI47
(lp48
I7
asI48
(lp49
I178
asI49
(lp50
I71
aI74
aI86
aI104
asI50
(lp51
I130
asI51
(lp52
I37
asI52
(lp53
I37
asI53
(lp54
I87
asI54
(lp55
I178
aI181
asI55
(lp56
I73
asI56
(lp57
I94
aI97
asI57
(lp58
I32
asI58
(lp59
I102
asI59
(lp60
I42
asI60
(lp61
I42
aI116
asI61
(lp62
I129
asI62
(lp63
I100
asI64
(lp64
I42
asI65
(lp65
I37
asI66
(lp66
I178
asI67
(lp67
I144
asI68
(lp68
I202
asI69
(lp69
I178
asI70
(lp70
I103
aI178
asI71
(lp71
I17
asI72
(lp72
I86
asI73
(lp73
I37
asI74
(lp74
I125
asI75
(lp75
I125
asI76
(lp76
I54
asI77
(lp77
I37
asI78
(lp78
I125
asI79
(lp79
I117
aI183
asI80
(lp80
I116
asI81
(lp81
I204
asI82
(lp82
I178
aI212
asI83
(lp83
I42
asI84
(lp84
I204
asI85
(lp85
I182
asI86
(lp86
I116
aI139
asI87
(lp87
I132
asI88
(lp88
I42
aI54
asI89
(lp89
I39
asI90
(lp90
I178
asI91
(lp91
I20
asI92
(lp92
I135
asI94
(lp93
I116
aI137
asI95
(lp94
I178
aI181
asI96
(lp95
I178
asI97
(lp96
I125
asI98
(lp97
I91
asI99
(lp98
I20
asI100
(lp99
I20
asI101
(lp100
I42
asI103
(lp101
I29
aI47
aI60
asI104
(lp102
I221
asI106
(lp103
I27
aI39
asI107
(lp104
I42
asI108
(lp105
I161
asI109
(lp106
I202
asI110
(lp107
I161
asI111
(lp108
I34
asI112
(lp109
I178
asI113
(lp110
I183
asI114
(lp111
I111
asI115
(lp112
I86
asI116
(lp113
I71
aI86
asI117
(lp114
I178
asI118
(lp115
I60
asI119
(lp116
I19
asI120
(lp117
I91
asI121
(lp118
I91
asI122
(lp119
I204
asI123
(lp120
I37
asI124
(lp121
I63
asI125
(lp122
I178
asI126
(lp123
I108
asI127
(lp124
I182
asI128
(lp125
I37
asI129
(lp126
I93
asI130
(lp127
I39
asI131
(lp128
I49
asI132
(lp129
I132
asI133
(lp130
I202
asI134
(lp131
I11
aI178
asI135
(lp132
I58
aI178
asI136
(lp133
I150
asI137
(lp134
I104
aI117
asI138
(lp135
I34
aI178
asI139
(lp136
I117
asI140
(lp137
I51
asI141
(lp138
I86
aI139
asI142
(lp139
I36
aI202
asI143
(lp140
I42
asI144
(lp141
I37
aI58
aI60
aI66
aI103
aI178
aI181
asI145
(lp142
I37
asI146
(lp143
I162
asI147
(lp144
I20
aI159
asI148
(lp145
I125
aI168
asI149
(lp146
I42
asI150
(lp147
I181
asI151
(lp148
I42
asI152
(lp149
I178
asI153
(lp150
I117
asI154
(lp151
I178
asI155
(lp152
I91
asI156
(lp153
I39
asI157
(lp154
I37
aI72
aI148
aI165
aI201
aI204
asI158
(lp155
I42
asI159
(lp156
I86
asI160
(lp157
I42
asI161
(lp158
I125
asI162
(lp159
I161
asI163
(lp160
I52
asI164
(lp161
I103
aI178
aI212
asI165
(lp162
I178
asI166
(lp163
I179
asI167
(lp164
I178
aI214
asI168
(lp165
I178
asI169
(lp166
I178
aI218
asI170
(lp167
I69
asI171
(lp168
I178
aI181
asI172
(lp169
I178
asI173
(lp170
I37
aI132
asI174
(lp171
I161
asI175
(lp172
I71
aI86
asI176
(lp173
I178
as.