(dp1
I1
(lp2
I13
aI16
asI2
(lp3
I8
asI5
(lp4
I9
asI6
(lp5
I9
asI7
(lp6
I7
asI8
(lp7
I7
asI9
(lp8
I7
asI10
(lp9
I7
asI11
(lp10
I13
aI16
asI14
(lp11
I6
asI15
(lp12
I13
aI16
asI16
(lp13
I13
aI16
asI17
(lp14
I13
aI16
asI18
(lp15
I13
aI16
asI21
(lp16
I10
as.