(lp0
I213
aI60
aI148
aI199
aI205
aI68
aI198
aI136
aI74
aI119
aI43
aI7
aI192
aI120
aI96
aI181
aI186
aI134
aI133
aI175
aI44
aI182
aI150
aI165
aI191
aI13
aI167
aI63
aI34
aI157
aI62
aI23
aI56
aI152
aI193
aI61
aI24
aI58
aI121
aI94
aI104
aI9
aI97
aI183
aI84
aI160
aI112
aI26
aI168
aI65
aI140
aI107
aI114
aI40
aI197
aI55
aI143
aI45
aI126
aI105
aI109
aI14
aI190
aI179
aI200
aI170
aI101
aI29
aI147
aI21
aI174
aI22
aI88
aI172
aI53
aI123
aI118
aI124
aI158
aI46
aI41
aI51
aI20
aI49
aI106
aI12
aI90
aI59
aI159
aI166
aI83
aI64
aI187
aI139
aI132
aI76
aI137
aI39
aI153
aI17
aI195
aI141
aI155
aI77
aI30
aI171
aI33
aI81
aI131
aI35
aI57
aI28
aI180
aI50
aI18
aI31
aI47
aI138
aI154
aI113
aI176
aI117
aI19
aI129
aI128
aI38
aI184
aI130
aI188
aI144
aI32
aI203
aI27
aI16
aI25
aI163
aI185
aI73
aI110
aI67
aI100
aI85
aI194
aI177
aI201
aI146
aI80
aI98
aI151
aI122
aI78
aI36
aI79
aI95
aI189
aI135
aI10
aI115
aI162
aI149
aI99
aI217
aI4
aI111
aI209
aI116
aI93
aI2
aI5
aI178
aI92
aI102
aI161
aI70
aI210
aI3
aI71
aI1
aI219
aI173
aI218
aI86
aI42
aI6
aI214
aI91
aI220
aI15
aI52
aI89
aI125
aI75
aI87
aI37
aI164
aI145
aI82
aI66
aI103
aI142
aI54
aI208
aI202
aI211
aI204
aI8
aI108
aI11
aI156
aI48
aI69
aI212
aI215
aI72
aI216
aI127
aI169
aI206
aI196
aI221
aI207
a.