(lp0
I21
aI201
aI31
aI94
aI170
aI141
aI80
aI38
aI165
aI207
aI175
aI190
aI72
aI41
aI70
aI180
aI188
aI55
aI119
aI100
aI182
aI192
aI121
aI81
aI171
aI2
aI185
aI83
aI104
aI76
aI68
aI194
aI18
aI32
aI140
aI184
aI148
aI163
aI160
aI146
aI59
aI200
aI77
aI110
aI64
aI20
aI101
aI26
aI57
aI65
aI133
aI51
aI40
aI79
aI27
aI111
aI90
aI43
aI166
aI109
aI174
aI17
aI183
aI203
aI195
aI61
aI187
aI153
aI29
aI152
aI50
aI172
aI117
aI84
aI95
aI45
aI120
aI179
aI122
aI56
aI159
aI62
aI168
aI63
aI143
aI181
aI47
aI36
aI97
aI198
aI197
aI128
aI39
aI114
aI78
aI167
aI126
aI191
aI19
aI28
aI176
aI12
aI88
aI135
aI49
aI96
aI35
aI98
aI14
aI25
aI73
aI134
aI23
aI112
aI199
aI154
aI13
aI150
aI162
aI131
aI58
aI30
aI144
aI193
aI123
aI34
aI177
aI132
aI158
aI130
aI151
aI24
aI46
aI67
aI147
aI10
aI137
aI136
aI74
aI139
aI138
aI106
aI33
aI205
aI124
aI105
aI189
aI53
aI16
aI44
aI85
aI9
aI107
aI157
aI155
aI115
aI22
aI113
aI118
aI216
aI204
aI66
aI129
aI4
aI125
aI202
aI8
aI6
aI99
aI217
aI42
aI3
aI210
aI71
aI89
aI5
aI116
aI209
aI52
aI1
aI208
aI7
aI173
aI102
aI156
aI15
aI211
aI69
aI60
aI92
aI54
aI214
aI93
aI219
aI86
aI145
aI218
aI103
aI186
aI215
aI178
aI108
aI75
aI37
aI169
aI91
aI142
aI164
aI87
aI221
aI212
aI149
aI11
aI161
aI127
aI48
aI82
aI220
aI213
aI196
aI206
a.