(lp0
I148
aI39
aI195
aI197
aI34
aI207
aI158
aI136
aI64
aI203
aI84
aI180
aI164
aI58
aI118
aI4
aI183
aI73
aI156
aI28
aI132
aI119
aI23
aI41
aI80
aI130
aI104
aI95
aI165
aI131
aI112
aI155
aI59
aI18
aI163
aI16
aI88
aI43
aI133
aI38
aI152
aI13
aI61
aI198
aI20
aI146
aI109
aI46
aI79
aI120
aI135
aI55
aI160
aI199
aI101
aI25
aI53
aI126
aI31
aI189
aI100
aI113
aI107
aI170
aI137
aI128
aI33
aI29
aI200
aI193
aI110
aI30
aI62
aI90
aI154
aI24
aI166
aI9
aI12
aI141
aI139
aI179
aI177
aI56
aI14
aI77
aI74
aI97
aI129
aI45
aI78
aI19
aI147
aI63
aI150
aI172
aI114
aI187
aI27
aI201
aI144
aI159
aI49
aI191
aI182
aI47
aI153
aI26
aI35
aI151
aI121
aI184
aI122
aI138
aI174
aI140
aI85
aI68
aI96
aI190
aI115
aI76
aI65
aI22
aI81
aI32
aI51
aI106
aI36
aI171
aI134
aI83
aI176
aI44
aI40
aI205
aI17
aI168
aI188
aI157
aI194
aI181
aI167
aI123
aI124
aI10
aI21
aI117
aI143
aI98
aI94
aI175
aI185
aI50
aI162
aI67
aI105
aI57
aI192
aI210
aI71
aI145
aI5
aI111
aI211
aI2
aI42
aI66
aI219
aI116
aI149
aI7
aI215
aI99
aI161
aI1
aI89
aI15
aI209
aI3
aI186
aI103
aI6
aI221
aI178
aI217
aI54
aI218
aI60
aI87
aI86
aI72
aI196
aI208
aI204
aI102
aI11
aI212
aI70
aI93
aI127
aI37
aI220
aI173
aI48
aI92
aI206
aI213
aI82
aI142
aI125
aI202
aI75
aI214
aI69
aI108
aI8
aI169
aI91
aI52
aI216
a.