(dp1
I1
(lp2
I54
asI2
(lp3
I53
asI3
(lp4
I42
asI4
(lp5
I53
asI5
(lp6
I58
asI6
(lp7
I78
asI7
(lp8
I107
asI8
(lp9
I12
asI9
(lp10
I12
asI10
(lp11
I17
aI41
asI11
(lp12
I121
asI12
(lp13
I29
aI32
asI13
(lp14
I112
asI14
(lp15
I38
asI15
(lp16
I97
asI16
(lp17
I107
asI17
(lp18
I13
asI18
(lp19
I77
asI19
(lp20
I13
asI20
(lp21
I108
asI22
(lp22
I20
aI59
asI23
(lp23
I12
asI24
(lp24
I107
asI25
(lp25
I13
asI26
(lp26
I13
asI27
(lp27
I117
as.