(lp0
I39
aI42
aI10
aI12
aI66
aI16
aI18
aI26
aI27
aI34
aI37
aI43
aI45
aI53
aI85
aI91
aI92
aI94
aI95
aI96
aI106
aI40
aI48
aI108
aI113
aI2
aI4
aI55
aI112
aI22
aI76
aI3
aI7
aI28
aI38
aI41
aI82
aI86
aI90
aI97
aI6
aI13
aI44
aI63
aI98
aI31
aI78
aI11
aI84
aI109
aI5
aI19
aI74
aI111
aI68
aI70
aI71
aI72
aI75
aI110
aI73
aI21
aI32
aI56
aI99
aI61
aI69
aI83
aI62
aI1
aI89
aI87
aI9
aI25
aI64
aI49
aI59
aI60
aI88
aI52
aI36
aI30
aI79
aI50
aI46
aI67
aI80
aI57
aI23
aI65
aI104
aI103
aI17
aI105
aI81
aI102
aI107
aI93
aI29
aI54
aI15
aI14
aI24
aI20
aI33
aI51
aI8
aI77
aI35
aI100
aI101
aI58
aI47
a.