(lp0
I38
aI84
aI73
aI7
aI28
aI40
aI81
aI19
aI89
aI67
aI21
aI80
aI98
aI87
aI31
aI49
aI78
aI88
aI83
aI32
aI59
aI107
aI82
aI111
aI23
aI42
aI60
aI91
aI33
aI109
aI52
aI99
aI103
aI30
aI90
aI22
aI75
aI104
aI110
aI95
aI34
aI112
aI85
aI86
aI1
aI11
aI94
aI61
aI46
aI15
aI69
aI64
aI18
aI62
aI65
aI70
aI6
aI41
aI5
aI92
aI29
aI68
aI26
aI96
aI50
aI66
aI97
aI10
aI106
aI57
aI63
aI105
aI12
aI74
aI76
aI102
aI2
aI72
aI39
aI56
aI27
aI9
aI3
aI71
aI79
aI16
aI113
aI4
aI53
aI43
aI44
aI108
aI45
aI55
aI25
aI17
aI48
aI8
aI51
aI100
aI24
aI14
aI13
aI101
aI54
aI36
aI20
aI77
aI37
aI93
aI47
aI35
aI58
a.