(lp0
I26
aI67
aI50
aI40
aI4
aI72
aI7
aI104
aI102
aI113
aI35
aI84
aI65
aI14
aI85
aI62
aI78
aI76
aI36
aI90
aI80
aI16
aI55
aI30
aI107
aI43
aI57
aI66
aI5
aI108
aI27
aI21
aI64
aI79
aI106
aI96
aI9
aI97
aI53
aI52
aI61
aI83
aI63
aI19
aI99
aI69
aI91
aI73
aI38
aI81
aI13
aI56
aI98
aI105
aI23
aI59
aI48
aI70
aI89
aI112
aI28
aI94
aI75
aI109
aI103
aI44
aI49
aI74
aI6
aI31
aI92
aI95
aI10
aI42
aI3
aI25
aI12
aI39
aI22
aI87
aI68
aI11
aI110
aI82
aI2
aI41
aI45
aI71
aI60
aI111
aI34
aI88
aI86
aI17
aI1
aI18
aI46
aI100
aI51
aI29
aI32
aI24
aI15
aI20
aI54
aI8
aI101
aI93
aI58
aI37
aI33
aI77
aI47
a.