(lp0
I41
aI24
aI68
aI84
aI102
aI111
aI27
aI80
aI42
aI18
aI65
aI33
aI74
aI26
aI110
aI13
aI94
aI38
aI66
aI47
aI98
aI62
aI2
aI108
aI46
aI31
aI53
aI14
aI99
aI85
aI89
aI104
aI5
aI103
aI112
aI7
aI79
aI63
aI107
aI16
aI72
aI106
aI64
aI45
aI109
aI75
aI97
aI30
aI12
aI28
aI88
aI55
aI82
aI56
aI22
aI91
aI48
aI90
aI1
aI6
aI50
aI29
aI10
aI52
aI67
aI87
aI25
aI60
aI23
aI86
aI105
aI96
aI3
aI92
aI81
aI11
aI43
aI83
aI39
aI78
aI17
aI76
aI70
aI44
aI71
aI4
aI73
aI34
aI9
aI61
aI113
aI95
aI59
aI21
aI49
aI69
aI93
aI19
aI54
aI8
aI57
aI32
aI15
aI58
aI36
aI35
aI51
aI77
aI100
aI40
aI20
aI101
aI37
a.