(lp0
I192
aI390
aI11
aI201
aI118
aI240
aI2
aI351
aI356
aI57
aI25
aI270
aI380
aI375
aI1
aI173
aI256
aI369
aI314
aI20
aI3
aI392
aI111
aI231
aI181
aI301
aI150
aI113
aI365
aI360
aI183
aI139
aI384
aI372
aI224
aI7
aI324
aI69
aI68
aI133
aI170
aI277
aI361
aI355
aI115
aI198
aI344
aI6
aI39
aI46
aI286
aI407
aI221
aI85
aI177
aI309
aI26
aI305
aI147
aI258
aI329
aI260
aI21
aI154
aI180
aI160
aI409
aI126
aI391
aI215
aI157
aI364
aI171
aI400
aI248
aI101
aI335
aI200
aI151
aI62
aI245
aI325
aI203
aI189
aI307
aI142
aI97
aI340
aI294
aI402
aI292
aI102
aI374
aI370
aI96
aI22
aI326
aI222
aI24
aI27
aI408
aI116
aI56
aI254
aI30
aI109
aI388
aI110
aI35
aI182
aI348
aI232
aI358
aI40
aI99
aI213
aI152
aI50
aI66
aI244
aI343
aI253
aI284
aI91
aI10
aI191
aI158
aI12
aI266
aI95
aI103
aI373
aI129
aI377
aI112
aI60
aI16
aI322
aI318
aI143
aI127
aI297
aI187
aI310
aI387
aI105
aI273
aI100
aI137
aI61
aI298
aI70
aI104
aI166
aI34
aI302
aI59
aI117
aI278
aI319
aI65
aI179
aI229
aI8
aI89
aI77
aI230
aI385
aI376
aI84
aI265
aI188
aI186
aI33
aI403
aI219
aI87
aI196
aI28
aI328
aI80
aI119
aI74
aI342
aI330
aI381
aI321
aI140
aI323
aI98
aI184
aI406
aI123
aI94
aI296
aI220
aI252
aI55
aI149
aI107
aI299
aI125
aI368
aI43
aI132
aI282
aI287
aI379
aI38
aI195
aI206
aI255
aI13
aI106
aI23
aI145
aI288
aI401
aI316
aI48
aI293
aI227
aI44
aI53
aI210
aI146
aI42
aI415
aI300
aI217
aI346
aI223
aI234
aI67
aI274
aI199
aI54
aI120
aI174
aI216
aI382
aI88
aI128
aI235
aI313
aI367
aI131
aI334
aI357
aI345
aI393
aI18
aI303
aI175
aI228
aI138
aI389
aI378
aI37
aI4
aI76
aI272
aI267
aI291
aI289
aI193
aI275
aI45
aI414
aI250
aI169
aI280
aI226
aI168
aI320
aI207
aI214
aI209
aI194
aI52
aI161
aI208
aI14
aI211
aI58
aI162
aI268
aI354
aI41
aI81
aI281
aI350
aI176
aI86
aI353
aI304
aI218
aI31
aI75
aI306
aI204
aI349
aI121
aI410
aI242
aI259
aI153
aI269
aI308
aI185
aI155
aI178
aI79
aI51
aI347
aI237
aI130
aI90
aI386
aI135
aI134
aI333
aI93
aI148
aI341
aI144
aI159
aI212
aI337
aI82
aI238
aI290
aI136
aI167
aI205
aI257
aI92
aI283
aI251
aI49
aI262
aI190
aI63
aI405
aI29
aI312
aI9
aI164
aI15
aI395
aI362
aI396
aI108
aI411
aI239
aI404
aI295
aI413
aI371
aI83
aI271
aI359
aI36
aI202
aI339
aI397
aI249
aI363
aI246
aI141
aI78
aI156
aI383
aI276
aI398
aI114
aI225
aI197
aI19
aI336
aI412
aI399
aI165
aI64
aI243
aI247
aI172
aI122
aI233
aI163
aI366
aI279
aI32
aI47
aI124
aI241
aI352
aI261
aI5
aI332
aI331
aI71
aI327
aI17
aI338
aI394
aI315
aI72
aI263
aI317
aI311
aI236
aI264
aI285
aI73
a.