(lp0
I39
aI405
aI79
aI58
aI47
aI89
aI101
aI280
aI172
aI212
aI83
aI326
aI157
aI387
aI302
aI68
aI371
aI268
aI69
aI97
aI317
aI144
aI56
aI209
aI406
aI324
aI228
aI120
aI222
aI95
aI129
aI384
aI187
aI30
aI152
aI377
aI45
aI340
aI191
aI294
aI52
aI346
aI333
aI264
aI13
aI27
aI408
aI374
aI307
aI293
aI32
aI266
aI351
aI253
aI148
aI289
aI134
aI220
aI232
aI330
aI217
aI319
aI316
aI149
aI26
aI329
aI309
aI160
aI383
aI303
aI242
aI46
aI131
aI88
aI175
aI16
aI201
aI290
aI345
aI181
aI143
aI357
aI117
aI372
aI29
aI240
aI338
aI2
aI314
aI305
aI277
aI196
aI341
aI80
aI275
aI87
aI352
aI165
aI102
aI105
aI108
aI6
aI94
aI274
aI216
aI255
aI206
aI128
aI350
aI386
aI292
aI111
aI391
aI276
aI415
aI104
aI200
aI138
aI402
aI76
aI159
aI136
aI344
aI100
aI4
aI18
aI141
aI265
aI127
aI230
aI153
aI31
aI367
aI155
aI186
aI215
aI296
aI145
aI298
aI356
aI114
aI189
aI321
aI399
aI43
aI162
aI62
aI361
aI323
aI61
aI244
aI34
aI98
aI113
aI257
aI238
aI288
aI262
aI204
aI273
aI364
aI287
aI137
aI110
aI194
aI413
aI20
aI205
aI353
aI154
aI60
aI51
aI64
aI116
aI389
aI147
aI84
aI258
aI96
aI42
aI229
aI237
aI57
aI348
aI7
aI256
aI123
aI65
aI325
aI414
aI375
aI395
aI335
aI392
aI11
aI125
aI334
aI382
aI107
aI66
aI254
aI369
aI224
aI231
aI347
aI278
aI9
aI379
aI381
aI24
aI173
aI227
aI25
aI214
aI63
aI188
aI70
aI373
aI203
aI271
aI390
aI14
aI193
aI163
aI10
aI359
aI234
aI121
aI28
aI393
aI219
aI410
aI166
aI75
aI133
aI38
aI54
aI167
aI306
aI109
aI269
aI412
aI221
aI168
aI140
aI23
aI233
aI106
aI93
aI81
aI146
aI336
aI260
aI396
aI213
aI397
aI119
aI44
aI78
aI300
aI247
aI130
aI197
aI176
aI164
aI135
aI291
aI239
aI99
aI295
aI22
aI411
aI409
aI139
aI36
aI297
aI250
aI199
aI322
aI243
aI103
aI388
aI158
aI320
aI183
aI251
aI403
aI198
aI190
aI33
aI161
aI92
aI1
aI385
aI400
aI328
aI378
aI118
aI3
aI318
aI279
aI202
aI363
aI179
aI270
aI354
aI339
aI355
aI77
aI366
aI283
aI299
aI15
aI362
aI150
aI376
aI207
aI74
aI174
aI349
aI178
aI192
aI177
aI132
aI59
aI151
aI55
aI12
aI343
aI126
aI407
aI380
aI8
aI261
aI226
aI358
aI218
aI82
aI281
aI404
aI284
aI67
aI35
aI235
aI313
aI169
aI312
aI53
aI310
aI142
aI90
aI208
aI225
aI184
aI252
aI272
aI342
aI249
aI37
aI171
aI180
aI398
aI223
aI19
aI122
aI86
aI21
aI41
aI85
aI170
aI40
aI195
aI246
aI91
aI282
aI245
aI401
aI49
aI304
aI370
aI50
aI301
aI360
aI182
aI156
aI248
aI124
aI259
aI267
aI210
aI368
aI115
aI308
aI112
aI337
aI241
aI365
aI185
aI394
aI315
aI17
aI71
aI327
aI236
aI332
aI331
aI286
aI211
aI72
aI5
aI285
aI48
aI263
aI73
aI311
a.