(lp0
I368
aI84
aI40
aI60
aI389
aI356
aI197
aI251
aI133
aI17
aI289
aI277
aI135
aI173
aI75
aI167
aI102
aI70
aI150
aI57
aI380
aI353
aI229
aI236
aI316
aI405
aI61
aI128
aI256
aI53
aI399
aI113
aI50
aI388
aI56
aI235
aI290
aI129
aI301
aI315
aI25
aI69
aI103
aI365
aI307
aI308
aI149
aI240
aI125
aI401
aI361
aI299
aI217
aI104
aI81
aI402
aI371
aI302
aI58
aI101
aI313
aI159
aI262
aI31
aI209
aI413
aI259
aI79
aI220
aI392
aI250
aI82
aI88
aI46
aI270
aI312
aI97
aI391
aI200
aI310
aI137
aI126
aI403
aI91
aI275
aI92
aI163
aI378
aI160
aI333
aI168
aI63
aI32
aI164
aI377
aI146
aI198
aI73
aI318
aI52
aI121
aI319
aI243
aI384
aI28
aI328
aI45
aI85
aI170
aI265
aI320
aI226
aI152
aI9
aI109
aI415
aI227
aI21
aI314
aI119
aI245
aI155
aI55
aI258
aI278
aI408
aI213
aI360
aI151
aI253
aI199
aI100
aI241
aI254
aI106
aI118
aI187
aI124
aI4
aI334
aI140
aI74
aI271
aI180
aI225
aI355
aI64
aI166
aI414
aI122
aI165
aI379
aI22
aI410
aI283
aI340
aI33
aI148
aI273
aI406
aI15
aI362
aI292
aI326
aI323
aI215
aI36
aI297
aI202
aI224
aI344
aI178
aI130
aI96
aI89
aI87
aI329
aI6
aI99
aI252
aI105
aI218
aI62
aI14
aI300
aI244
aI248
aI193
aI177
aI223
aI26
aI114
aI232
aI228
aI194
aI381
aI336
aI354
aI108
aI95
aI203
aI233
aI234
aI348
aI255
aI375
aI387
aI12
aI86
aI175
aI239
aI349
aI80
aI181
aI172
aI279
aI407
aI396
aI157
aI395
aI208
aI68
aI182
aI205
aI274
aI268
aI192
aI346
aI373
aI112
aI390
aI281
aI30
aI20
aI219
aI261
aI276
aI298
aI272
aI142
aI246
aI13
aI242
aI305
aI345
aI18
aI293
aI343
aI184
aI267
aI247
aI43
aI210
aI195
aI383
aI364
aI309
aI357
aI249
aI237
aI66
aI342
aI174
aI358
aI107
aI23
aI303
aI116
aI141
aI67
aI3
aI147
aI351
aI65
aI207
aI214
aI120
aI35
aI156
aI132
aI44
aI8
aI171
aI191
aI127
aI41
aI295
aI154
aI404
aI117
aI115
aI27
aI212
aI139
aI143
aI280
aI400
aI324
aI161
aI287
aI372
aI59
aI189
aI196
aI110
aI221
aI398
aI216
aI230
aI39
aI409
aI7
aI206
aI393
aI78
aI24
aI185
aI188
aI136
aI359
aI144
aI54
aI138
aI341
aI266
aI162
aI37
aI374
aI352
aI411
aI83
aI42
aI369
aI337
aI179
aI134
aI29
aI131
aI49
aI304
aI93
aI367
aI347
aI10
aI222
aI325
aI296
aI294
aI204
aI238
aI169
aI397
aI34
aI257
aI376
aI145
aI158
aI19
aI98
aI190
aI38
aI94
aI306
aI366
aI111
aI385
aI321
aI123
aI284
aI322
aI288
aI260
aI77
aI90
aI186
aI363
aI183
aI51
aI76
aI2
aI1
aI176
aI47
aI370
aI339
aI231
aI269
aI386
aI153
aI282
aI291
aI350
aI11
aI201
aI412
aI335
aI382
aI332
aI263
aI331
aI327
aI211
aI16
aI71
aI317
aI330
aI338
aI5
aI264
aI286
aI394
aI72
aI48
aI285
aI311
a.