(lp0
I412
aI407
aI124
aI234
aI293
aI47
aI406
aI107
aI284
aI134
aI10
aI41
aI242
aI388
aI232
aI231
aI299
aI35
aI153
aI12
aI245
aI101
aI162
aI51
aI110
aI60
aI374
aI95
aI345
aI98
aI48
aI398
aI312
aI360
aI253
aI348
aI19
aI252
aI322
aI187
aI393
aI146
aI295
aI204
aI149
aI55
aI97
aI75
aI65
aI353
aI368
aI127
aI1
aI143
aI283
aI109
aI94
aI183
aI27
aI21
aI117
aI226
aI229
aI402
aI91
aI271
aI87
aI66
aI72
aI118
aI74
aI267
aI359
aI225
aI395
aI277
aI305
aI369
aI77
aI401
aI255
aI29
aI111
aI83
aI100
aI356
aI290
aI116
aI84
aI86
aI338
aI381
aI414
aI172
aI391
aI155
aI273
aI63
aI76
aI246
aI244
aI250
aI212
aI90
aI209
aI331
aI256
aI123
aI358
aI397
aI313
aI288
aI335
aI257
aI336
aI306
aI261
aI220
aI129
aI377
aI126
aI230
aI318
aI56
aI22
aI69
aI54
aI184
aI304
aI114
aI218
aI235
aI287
aI8
aI6
aI196
aI258
aI400
aI52
aI106
aI157
aI294
aI254
aI206
aI291
aI380
aI24
aI28
aI202
aI314
aI70
aI327
aI276
aI373
aI133
aI39
aI174
aI265
aI339
aI370
aI161
aI239
aI219
aI222
aI177
aI237
aI108
aI379
aI349
aI241
aI347
aI366
aI3
aI343
aI190
aI115
aI208
aI207
aI164
aI300
aI390
aI185
aI272
aI342
aI296
aI32
aI147
aI215
aI9
aI344
aI223
aI49
aI132
aI389
aI169
aI18
aI176
aI165
aI337
aI13
aI80
aI399
aI251
aI195
aI53
aI25
aI319
aI50
aI163
aI316
aI168
aI205
aI151
aI88
aI2
aI269
aI376
aI85
aI371
aI350
aI167
aI122
aI125
aI92
aI194
aI281
aI99
aI138
aI325
aI217
aI64
aI156
aI119
aI23
aI328
aI193
aI178
aI58
aI355
aI173
aI128
aI382
aI197
aI274
aI387
aI326
aI45
aI221
aI214
aI307
aI275
aI148
aI385
aI152
aI191
aI68
aI7
aI81
aI367
aI365
aI227
aI308
aI130
aI404
aI216
aI33
aI31
aI247
aI411
aI93
aI302
aI375
aI139
aI378
aI30
aI175
aI181
aI136
aI384
aI403
aI89
aI105
aI320
aI383
aI409
aI46
aI201
aI321
aI38
aI352
aI262
aI266
aI303
aI67
aI249
aI301
aI351
aI200
aI26
aI224
aI150
aI120
aI199
aI103
aI361
aI282
aI260
aI259
aI137
aI159
aI354
aI298
aI40
aI78
aI20
aI145
aI364
aI346
aI112
aI59
aI186
aI141
aI323
aI334
aI213
aI233
aI121
aI396
aI410
aI210
aI392
aI82
aI96
aI408
aI278
aI341
aI11
aI104
aI240
aI144
aI228
aI340
aI43
aI182
aI34
aI243
aI279
aI170
aI142
aI189
aI310
aI309
aI363
aI158
aI79
aI102
aI324
aI160
aI37
aI413
aI386
aI171
aI180
aI248
aI280
aI16
aI36
aI198
aI14
aI61
aI62
aI15
aI238
aI270
aI415
aI203
aI4
aI292
aI362
aI297
aI140
aI188
aI57
aI113
aI357
aI179
aI166
aI289
aI44
aI131
aI405
aI268
aI154
aI192
aI372
aI333
aI42
aI135
aI317
aI71
aI332
aI330
aI329
aI211
aI17
aI394
aI286
aI315
aI73
aI264
aI311
aI5
aI236
aI263
aI285
a.