(dp1
I1
(lp2
I187
asI2
(lp3
I136
asI3
(lp4
I40
asI4
(lp5
I45
asI6
(lp6
I51
asI7
(lp7
I33
asI8
(lp8
I65
asI9
(lp9
I172
asI10
(lp10
I151
asI11
(lp11
I194
asI12
(lp12
I48
asI13
(lp13
I184
asI14
(lp14
I27
asI15
(lp15
I23
asI17
(lp16
I139
asI19
(lp17
I24
aI66
aI196
asI21
(lp18
I52
asI22
(lp19
I170
asI23
(lp20
I167
asI24
(lp21
I47
asI25
(lp22
I40
asI26
(lp23
I4
asI27
(lp24
I108
asI28
(lp25
I143
asI29
(lp26
I108
asI30
(lp27
I108
asI31
(lp28
I203
asI32
(lp29
I76
asI33
(lp30
I190
asI36
(lp31
I12
asI40
(lp32
I73
asI42
(lp33
I65
asI43
(lp34
I185
asI44
(lp35
I113
asI46
(lp36
I194
asI47
(lp37
I166
aI169
asI48
(lp38
I160
asI51
(lp39
I99
asI55
(lp40
I158
asI56
(lp41
I65
asI60
(lp42
I106
asI70
(lp43
I190
asI71
(lp44
I66
asI80
(lp45
I114
asI87
(lp46
I51
asI95
(lp47
I196
asI99
(lp48
I196
asI100
(lp49
I136
asI101
(lp50
I190
asI106
(lp51
I148
as.