(dp1
I1
(lp2
I174
asI2
(lp3
I286
asI3
(lp4
I338
asI4
(lp5
I32
aI38
aI48
aI83
aI91
aI96
aI98
aI101
aI102
aI173
asI5
(lp6
I376
asI6
(lp7
I263
asI7
(lp8
I335
asI8
(lp9
I340
asI9
(lp10
I338
asI10
(lp11
I74
asI11
(lp12
I264
asI12
(lp13
I160
asI13
(lp14
I53
asI14
(lp15
I148
aI173
asI15
(lp16
I162
asI16
(lp17
I271
asI17
(lp18
I338
asI18
(lp19
I270
aI297
aI298
asI19
(lp20
I148
asI20
(lp21
I172
asI21
(lp22
I309
asI22
(lp23
I302
asI23
(lp24
I189
asI24
(lp25
I202
asI25
(lp26
I196
asI26
(lp27
I76
aI77
aI78
aI82
aI86
aI87
aI92
aI93
aI94
aI97
aI148
aI178
aI183
aI184
aI185
aI186
aI189
aI196
aI197
as.