ccollections
defaultdict
p0
(c__builtin__
float
p1
tp2
Rp3
(I32
I54
tp4
F672072.0
s(I5
I31
tp5
F216756.0
s(I33
I55
tp6
F321731.0
s(I23
I60
tp7
F103279.0
s(I30
I41
tp8
F90095.0
s(I36
I68
tp9
F109696.0
s(I28
I41
tp10
F35173.0
s(I34
I52
tp11
F367157.0
s(I32
I44
tp12
F625752.0
s(I13
I70
tp13
F355162.0
s(I35
I41
tp14
F45082.0
s(I18
I19
tp15
F131602.0
s(I33
I41
tp16
F154332.0
s(I23
I26
tp17
F76615.0
s(I40
I60
tp18
F244861.0
s(I30
I51
tp19
F447558.0
s(I7
I55
tp20
F371517.0
s(I13
I32
tp21
F816027.0
s(I37
I69
tp22
F206254.0
s(I29
I70
tp23
F285036.0
s(I18
I45
tp24
F315928.0
s(I35
I49
tp25
F255064.0
s(I14
I31
tp26
F208130.0
s(I38
I40
tp27
F183351.0
s(I53
I64
tp28
F243335.0
s(I3
I4
tp29
F50314.0
s(I30
I66
tp30
F134533.0
s(I13
I58
tp31
F214164.0
s(I32
I57
tp32
F663706.0
s(I48
I59
tp33
F425850.0
s(I37
I64
tp34
F205779.0
s(I14
I70
tp35
F296374.0
s(I13
I20
tp36
F210793.0
s(I40
I68
tp37
F242633.0
s(I2
I27
tp38
F112843.0
s(I5
I44
tp39
F261345.0
s(I56
I66
tp40
F92468.0
s(I37
I62
tp41
F181890.0
s(I54
I58
tp42
F100289.0
s(I25
I49
tp43
F266000.0
s(I5
I45
tp44
F369298.0
s(I19
I39
tp45
F160762.0
s(I2
I53
tp46
F320791.0
s(I26
I54
tp47
F129052.0
s(I56
I58
tp48
F92531.0
s(I5
I24
tp49
F62063.0
s(I9
I41
tp50
F44431.0
s(I53
I62
tp51
F260434.0
s(I27
I39
tp52
F189694.0
s(I23
I53
tp53
F283592.0
s(I36
I67
tp54
F191449.0
s(I28
I32
tp55
F772587.0
s(I32
I35
tp56
F762636.0
s(I16
I28
tp57
F66569.0
s(I61
I69
tp58
F101997.0
s(I9
I39
tp59
F265936.0
s(I40
I41
tp60
F324471.0
s(I30
I58
tp61
F135836.0
s(I36
I41
tp62
F129808.0
s(I60
I62
tp63
F92531.0
s(I34
I41
tp64
F113379.0
s(I31
I51
tp65
F364734.0
s(I37
I44
tp66
F272213.0
s(I11
I41
tp67
F49755.0
s(I26
I67
tp68
F189709.0
s(I18
I36
tp69
F80837.0
s(I16
I60
tp70
F148416.0
s(I36
I55
tp71
F336523.0
s(I43
I52
tp72
F227952.0
s(I30
I69
tp73
F161876.0
s(I13
I51
tp74
F533276.0
s(I37
I54
tp75
F191173.0
s(I34
I35
tp76
F103513.0
s(I44
I55
tp77
F257731.0
s(I18
I62
tp78
F116840.0
s(I48
I50
tp79
F383030.0
s(I49
I51
tp80
F342251.0
s(I19
I70
tp81
F216090.0
s(I2
I18
tp82
F106417.0
s(I24
I59
tp83
F255193.0
s(I47
I64
tp84
F360969.0
s(I29
I31
tp85
F197302.0
s(I25
I58
tp86
F174197.0
s(I15
I43
tp87
F350385.0
s(I19
I44
tp88
F171937.0
s(I2
I12
tp89
F60994.0
s(I26
I49
tp90
F206388.0
s(I32
I68
tp91
F684774.0
s(I46
I52
tp92
F249254.0
s(I3
I17
tp93
F73945.0
s(I9
I70
tp94
F318786.0
s(I60
I70
tp95
F230547.0
s(I23
I50
tp96
F237596.0
s(I47
I49
tp97
F319227.0
s(I44
I69
tp98
F162865.0
s(I37
I68
tp99
F176051.0
s(I34
I70
tp100
F258448.0
s(I58
I59
tp101
F151084.0
s(I32
I58
tp102
F680251.0
s(I35
I53
tp103
F336871.0
s(I48
I68
tp104
F468267.0
s(I29
I62
tp105
F150490.0
s(I33
I59
tp106
F161623.0
s(I16
I29
tp107
F49799.0
s(I38
I64
tp108
F147740.0
s(I30
I61
tp109
F160351.0
s(I2
I64
tp110
F170630.0
s(I15
I70
tp111
F312852.0
s(I50
I70
tp112
F138998.0
s(I19
I31
tp113
F133104.0
s(I14
I68
tp114
F157213.0
s(I18
I31
tp115
F173114.0
s(I16
I51
tp116
F464323.0
s(I12
I41
tp117
F60100.0
s(I36
I62
tp118
F115645.0
s(I43
I45
tp119
F173689.0
s(I13
I44
tp120
F305521.0
s(I28
I68
tp121
F173195.0
s(I5
I55
tp122
F392758.0
s(I18
I57
tp123
F142431.0
s(I5
I70
tp124
F306854.0
s(I38
I60
tp125
F164826.0
s(I16
I66
tp126
F153186.0
s(I49
I52
tp127
F275418.0
s(I44
I68
tp128
F181788.0
s(I50
I51
tp129
F318606.0
s(I18
I72
tp130
F137086.0
s(I25
I66
tp131
F172262.0
s(I37
I66
tp132
F178319.0
s(I35
I70
tp133
F300447.0
s(I40
I66
tp134
F251357.0
s(I2
I7
tp135
F53150.0
s(I26
I56
tp136
F106418.0
s(I33
I67
tp137
F177743.0
s(I56
I62
tp138
F92531.0
s(I12
I59
tp139
F219315.0
s(I34
I64
tp140
F148815.0
s(I1
I58
tp141
F185572.0
s(I57
I69
tp142
F101997.0
s(I47
I62
tp143
F377328.0
s(I28
I54
tp144
F186527.0
s(I2
I33
tp145
F128344.0
s(I26
I34
tp146
F80585.0
s(I32
I49
tp147
F623960.0
s(I5
I20
tp148
F160853.0
s(I29
I55
tp149
F372768.0
s(I33
I60
tp150
F91030.0
s(I23
I33
tp151
F91479.0
s(I30
I36
tp152
F101015.0
s(I28
I44
tp153
F267523.0
s(I34
I59
tp154
F183010.0
s(I50
I65
tp155
F218088.0
s(I16
I26
tp156
F105732.0
s(I5
I62
tp157
F169986.0
s(I24
I41
tp158
F57882.0
s(I18
I22
tp159
F111221.0
s(I16
I42
tp160
F303939.0
s(I40
I55
tp161
F225872.0
s(I5
I9
tp162
F44796.0
s(I36
I37
tp163
F135145.0
s(I5
I59
tp164
F231746.0
s(I13
I37
tp165
F63096.0
s(I28
I67
tp166
F245228.0
s(I9
I29
tp167
F81354.0
s(I19
I41
tp168
F185685.0
s(I38
I55
tp169
F262325.0
s(I53
I69
tp170
F241790.0
s(I35
I39
tp171
F245495.0
s(I43
I56
tp172
F265752.0
s(I15
I19
tp173
F190874.0
s(I11
I64
tp174
F211549.0
s(I34
I37
tp175
F121544.0
s(I44
I67
tp176
F140297.0
s(I35
I67
tp177
F234267.0
s(I7
I31
tp178
F199707.0
s(I14
I60
tp179
F155021.0
s(I12
I20
tp180
F147240.0
s(I18
I67
tp181
F191672.0
s(I15
I57
tp182
F200135.0
s(I16
I45
tp183
F353967.0
s(I19
I58
tp184
F103824.0
s(I39
I62
tp185
F166824.0
s(I33
I68
tp186
F89766.0
s(I46
I70
tp187
F315409.0
s(I5
I6
tp188
F165952.0
s(I1
I51
tp189
F498858.0
s(I23
I64
tp190
F139339.0
s(I15
I39
tp191
F260814.0
s(I19
I32
tp192
F670355.0
s(I2
I56
tp193
F140446.0
s(I26
I45
tp194
F312993.0
s(I32
I72
tp195
F668697.0
s(I5
I29
tp196
F67652.0
s(I33
I53
tp197
F271951.0
s(I23
I62
tp198
F110410.0
s(I30
I47
tp199
F421298.0
s(I36
I70
tp200
F250377.0
s(I28
I43
tp201
F348105.0
s(I34
I50
tp202
F248188.0
s(I7
I27
tp203
F116117.0
s(I13
I68
tp204
F208147.0
s(I48
I72
tp205
F450346.0
s(I29
I42
tp206
F301064.0
s(I50
I59
tp207
F177454.0
s(I16
I33
tp208
F129588.0
s(I40
I62
tp209
F238316.0
s(I30
I49
tp210
F229569.0
s(I36
I44
tp211
F205766.0
s(I34
I44
tp212
F216189.0
s(I7
I49
tp213
F242558.0
s(I31
I52
tp214
F302007.0
s(I29
I68
tp215
F144151.0
s(I26
I70
tp216
F249481.0
s(I18
I43
tp217
F288807.0
s(I14
I29
tp218
F59566.0
s(I38
I46
tp219
F351420.0
s(I22
I49
tp220
F244826.0
s(I19
I65
tp221
F103824.0
s(I15
I24
tp222
F55099.0
s(I30
I64
tp223
F160351.0
s(I13
I56
tp224
F206707.0
s(I44
I58
tp225
F181281.0
s(I7
I70
tp226
F284355.0
s(I42
I70
tp227
F165868.0
s(I48
I61
tp228
F446881.0
s(I45
I59
tp229
F249792.0
s(I19
I67
tp230
F164282.0
s(I2
I25
tp231
F82776.0
s(I16
I21
tp232
F67144.0
s(I14
I41
tp233
F56205.0
s(I47
I69
tp234
F362870.0
s(I71
I72
tp235
F230743.0
s(I1
I52
tp236
F429407.0
s(I25
I55
tp237
F396529.0
s(I15
I44
tp238
F265955.0
s(I40
I64
tp239
F221767.0
s(I2
I51
tp240
F456515.0
s(I26
I52
tp241
F359872.0
s(I56
I60
tp242
F0.0
s(I46
I51
tp243
F206525.0
s(I53
I60
tp244
F263625.0
s(I9
I67
tp245
F253568.0
s(I23
I55
tp246
F337146.0
s(I28
I34
tp247
F115960.0
s(I2
I45
tp248
F346191.0
s(I14
I67
tp249
F232202.0
s(I32
I37
tp250
F777079.0
s(I55
I58
tp251
F311438.0
s(I61
I67
tp252
F152777.0
s(I23
I45
tp253
F311282.0
s(I30
I56
tp254
F127405.0
s(I2
I71
tp255
F301120.0
s(I11
I51
tp256
F498010.0
s(I16
I24
tp257
F85466.0
s(I37
I42
tp258
F332870.0
s(I24
I39
tp259
F281735.0
s(I26
I65
tp260
F115911.0
s(I16
I62
tp261
F154041.0
s(I5
I11
tp262
F52778.0
s(I36
I49
tp263
F206432.0
s(I43
I54
tp264
F250598.0
s(I13
I49
tp265
F309703.0
s(I37
I52
tp266
F424907.0
s(I43
I58
tp267
F257443.0
s(I18
I60
tp268
F109241.0
s(I48
I52
tp269
F313695.0
s(I38
I59
tp270
F123793.0
s(I45
I52
tp271
F215525.0
s(I19
I72
tp272
F105564.0
s(I34
I39
tp273
F200746.0
s(I35
I65
tp274
F162691.0
s(I47
I66
tp275
F386643.0
s(I9
I54
tp276
F194239.0
s(I57
I70
tp277
F206549.0
s(I15
I53
tp278
F354182.0
s(I45
I69
tp279
F267080.0
s(I2
I10
tp280
F94370.0
s(I35
I72
tp281
F180679.0
s(I32
I70
tp282
F597373.0
s(I33
I72
tp283
F114901.0
s(I46
I58
tp284
F393937.0
s(I20
I41
tp285
F164876.0
s(I9
I68
tp286
F176663.0
s(I60
I64
tp287
F119366.0
s(I57
I66
tp288
F123458.0
s(I47
I51
tp289
F222914.0
s(I13
I31
tp290
F267524.0
s(I28
I57
tp291
F201143.0
s(I2
I36
tp292
F108950.0
s(I32
I60
tp293
F684978.0
s(I48
I70
tp294
F378354.0
s(I33
I57
tp295
F125414.0
s(I16
I31
tp296
F200773.0
s(I38
I70
tp297
F175209.0
s(I30
I35
tp298
F85571.0
s(I34
I62
tp299
F120114.0
s(I15
I64
tp300
F200135.0
s(I50
I68
tp301
F223221.0
s(I31
I58
tp302
F140508.0
s(I5
I51
tp303
F481694.0
s(I26
I72
tp304
F133495.0
s(I18
I29
tp305
F106150.0
s(I57
I59
tp306
F140165.0
s(I16
I53
tp307
F328819.0
s(I40
I50
tp308
F153384.0
s(I54
I70
tp309
F217639.0
s(I24
I52
tp310
F437786.0
s(I7
I11
tp311
F88459.0
s(I41
I51
tp312
F484089.0
s(I13
I42
tp313
F369198.0
s(I28
I70
tp314
F310842.0
s(I14
I64
tp315
F186167.0
s(I18
I55
tp316
F340836.0
s(I9
I22
tp317
F82855.0
s(I5
I68
tp318
F168557.0
s(I38
I50
tp319
F171407.0
s(I16
I68
tp320
F149136.0
s(I15
I20
tp321
F166385.0
s(I39
I59
tp322
F131214.0
s(I26
I28
tp323
F125825.0
s(I14
I59
tp324
F220562.0
s(I12
I31
tp325
F205975.0
s(I18
I70
tp326
F255388.0
s(I1
I6
tp327
F184822.0
s(I15
I50
tp328
F302822.0
s(I56
I65
tp329
F92531.0
s(I19
I55
tp330
F304856.0
s(I2
I5
tp331
F75337.0
s(I33
I65
tp332
F97639.0
s(I46
I61
tp333
F380336.0
s(I23
I69
tp334
F133306.0
s(I47
I56
tp335
F384017.0
s(I55
I66
tp336
F322221.0
s(I28
I48
tp337
F547846.0
s(I2
I63
tp338
F140446.0
s(I26
I32
tp339
F706798.0
s(I32
I51
tp340
F496931.0
s(I22
I58
tp341
F151889.0
s(I3
I62
tp342
F159776.0
s(I33
I50
tp343
F229301.0
s(I23
I35
tp344
F126103.0
s(I30
I42
tp345
F282848.0
s(I34
I57
tp346
F148815.0
s(I32
I41
tp347
F769470.0
s(I63
I67
tp348
F174183.0
s(I5
I60
tp349
F164753.0
s(I35
I36
tp350
F121088.0
s(I18
I20
tp351
F108989.0
s(I23
I25
tp352
F135171.0
s(I40
I57
tp353
F221767.0
s(I36
I39
tp354
F197503.0
s(I25
I51
tp355
F487565.0
s(I17
I41
tp356
F49740.0
s(I7
I58
tp357
F150307.0
s(I13
I35
tp358
F90109.0
s(I37
I72
tp359
F199148.0
s(I42
I51
tp360
F304272.0
s(I14
I24
tp361
F78903.0
s(I38
I53
tp362
F211905.0
s(I53
I67
tp363
F223060.0
s(I37
I67
tp364
F251350.0
s(I13
I66
tp365
F202291.0
s(I15
I29
tp366
F72498.0
s(I5
I8
tp367
F96925.0
s(I48
I56
tp368
F468757.0
s(I56
I70
tp369
F230547.0
s(I18
I65
tp370
F116840.0
s(I15
I59
tp371
F235952.0
s(I56
I72
tp372
F118051.0
s(I19
I60
tp373
F111643.0
s(I2
I28
tp374
F83969.0
s(I19
I71
tp375
F236101.0
s(I46
I68
tp376
F400568.0
s(I43
I49
tp377
F200220.0
s(I51
I59
tp378
F360994.0
s(I23
I66
tp379
F113387.0
s(I15
I33
tp380
F157713.0
s(I21
I62
tp381
F175559.0
s(I16
I41
tp382
F62768.0
s(I2
I54
tp383
F157362.0
s(I26
I43
tp384
F282138.0
s(I5
I27
tp385
F132962.0
s(I23
I56
tp386
F103279.0
s(I30
I45
tp387
F336360.0
s(I36
I64
tp388
F139906.0
s(I28
I37
tp389
F38308.0
s(I34
I48
tp390
F491650.0
s(I7
I21
tp391
F80366.0
s(I63
I72
tp392
F118051.0
s(I19
I22
tp393
F171235.0
s(I61
I72
tp394
F107167.0
s(I35
I45
tp395
F363675.0
s(I33
I45
tp396
F299401.0
s(I16
I35
tp397
F57986.0
s(I34
I66
tp398
F122089.0
s(I30
I55
tp399
F359418.0
s(I34
I42
tp400
F270038.0
s(I7
I51
tp401
F458535.0
s(I50
I54
tp402
F206629.0
s(I29
I66
tp403
F148615.0
s(I26
I68
tp404
F109212.0
s(I18
I41
tp405
F127307.0
s(I42
I58
tp406
F237812.0
s(I16
I57
tp407
F178796.0
s(I38
I44
tp408
F134282.0
s(I36
I52
tp409
F365814.0
s(I43
I51
tp410
F291851.0
s(I30
I70
tp411
F270580.0
s(I13
I54
tp412
F225603.0
s(I44
I52
tp413
F280020.0
s(I7
I64
tp414
F172868.0
s(I42
I68
tp415
F239985.0
s(I36
I65
tp416
F115645.0
s(I16
I72
tp417
F172801.0
s(I49
I62
tp418
F178157.0
s(I19
I69
tp419
F104066.0
s(I43
I64
tp420
F242846.0
s(I43
I72
tp421
F246733.0
s(I47
I71
tp422
F279911.0
s(I3
I6
tp423
F153928.0
s(I1
I10
tp424
F138915.0
s(I12
I64
tp425
F181918.0
s(I25
I27
tp426
F134839.0
s(I19
I43
tp427
F250311.0
s(I2
I49
tp428
F239500.0
s(I26
I50
tp429
F241531.0
s(I32
I65
tp430
F680251.0
s(I23
I36
tp431
F76821.0
s(I46
I49
tp432
F347646.0
s(I53
I58
tp433
F260434.0
s(I14
I21
tp434
F59171.0
s(I23
I49
tp435
F206735.0
s(I47
I52
tp436
F228541.0
s(I14
I39
tp437
F241026.0
s(I28
I60
tp438
F170101.0
s(I2
I43
tp439
F317338.0
s(I32
I39
tp440
F633085.0
s(I48
I65
tp441
F460154.0
s(I61
I65
tp442
F116101.0
s(I12
I51
tp443
F468875.0
s(I29
I39
tp444
F228432.0
s(I31
I41
tp445
F217675.0
s(I23
I47
tp446
F399596.0
s(I30
I62
tp447
F135836.0
s(I2
I69
tp448
F169985.0
s(I15
I69
tp449
F200268.0
s(I18
I32
tp450
F710083.0
s(I16
I48
tp451
F524793.0
s(I38
I39
tp452
F119195.0
s(I36
I51
tp453
F425919.0
s(I37
I50
tp454
F308388.0
s(I44
I51
tp455
F342029.0
s(I18
I58
tp456
F116840.0
s(I48
I54
tp457
F457487.0
s(I38
I57
tp458
F147740.0
s(I27
I64
tp459
F137715.0
s(I5
I49
tp460
F264633.0
s(I35
I54
tp461
F176580.0
s(I14
I54
tp462
F171723.0
s(I25
I62
tp463
F174197.0
s(I15
I55
tp464
F399282.0
s(I21
I64
tp465
F201146.0
s(I22
I27
tp466
F116603.0
s(I28
I29
tp467
F73708.0
s(I2
I8
tp468
F74952.0
s(I26
I61
tp469
F141810.0
s(I1
I41
tp470
F47551.0
s(I46
I56
tp471
F401186.0
s(I12
I17
tp472
F78076.0
s(I13
I72
tp473
F233060.0
s(I60
I66
tp474
F92468.0
s(I57
I64
tp475
F0.0
s(I47
I61
tp476
F360969.0
s(I30
I31
tp477
F190450.0
s(I28
I59
tp478
F237706.0
s(I2
I34
tp479
F91757.0
s(I26
I39
tp480
F193431.0
s(I32
I62
tp481
F680251.0
s(I40
I52
tp482
F248099.0
s(I29
I58
tp483
F150490.0
s(I3
I59
tp484
F219194.0
s(I7
I17
tp485
F87160.0
s(I16
I17
tp486
F77666.0
s(I38
I68
tp487
F166906.0
s(I30
I33
tp488
F115359.0
s(I34
I60
tp489
F114605.0
s(I15
I66
tp490
F173251.0
s(I50
I66
tp491
F226295.0
s(I63
I68
tp492
F89022.0
s(I19
I20
tp493
F107665.0
s(I43
I69
tp494
F245201.0
s(I18
I27
tp495
F84236.0
s(I35
I50
tp496
F289855.0
s(I16
I55
tp497
F376751.0
s(I34
I68
tp498
F118183.0
s(I36
I58
tp499
F115645.0
s(I28
I64
tp500
F201143.0
s(I18
I53
tp501
F294934.0
s(I5
I66
tp502
F169779.0
s(I38
I48
tp503
F418019.0
s(I16
I70
tp504
F290763.0
s(I15
I22
tp505
F68153.0
s(I40
I71
tp506
F153973.0
s(I5
I41
tp507
F38731.0
s(I37
I59
tp508
F242410.0
s(I18
I68
tp509
F111845.0
s(I1
I4
tp510
F53770.0
s(I19
I59
tp511
F148876.0
s(I15
I60
tp512
F169671.0
s(I56
I67
tp513
F174183.0
s(I19
I57
tp514
F113955.0
s(I2
I3
tp515
F58449.0
s(I46
I67
tp516
F361909.0
s(I51
I52
tp517
F247493.0
s(I23
I71
tp518
F269359.0
s(I47
I58
tp519
F377328.0
s(I21
I51
tp520
F487447.0
s(I28
I50
tp521
F303166.0
s(I2
I61
tp522
F170630.0
s(I17
I59
tp523
F246539.0
s(I32
I53
tp524
F572939.0
s(I23
I42
tp525
F258830.0
s(I14
I69
tp526
F183216.0
s(I29
I51
tp527
F460190.0
s(I53
I54
tp528
F248603.0
s(I23
I61
tp529
F139339.0
s(I30
I40
tp530
F288312.0
s(I28
I40
tp531
F330634.0
s(I34
I55
tp532
F343376.0
s(I32
I43
tp533
F573124.0
s(I5
I58
tp534
F169986.0
s(I29
I45
tp535
F350510.0
s(I40
I42
tp536
F161680.0
s(I16
I46
tp537
F461592.0
s(I40
I59
tp538
F198962.0
s(I30
I50
tp539
F262668.0
s(I39
I41
tp540
F253223.0
s(I7
I52
tp541
F393442.0
s(I18
I44
tp542
F208721.0
s(I42
I49
tp543
F189417.0
s(I38
I43
tp544
F211430.0
s(I53
I65
tp545
F260434.0
s(I43
I60
tp546
F265752.0
s(I15
I31
tp547
F222690.0
s(I13
I59
tp548
F271810.0
s(I27
I59
tp549
F168128.0
s(I65
I69
tp550
F107358.0
s(I48
I58
tp551
F460154.0
s(I45
I62
tp552
F286998.0
s(I49
I59
tp553
F144071.0
s(I13
I21
tp554
F72607.0
s(I19
I62
tp555
F103824.0
s(I2
I26
tp556
F99174.0
s(I24
I51
tp557
F509215.0
s(I14
I42
tp558
F311894.0
s(I19
I25
tp559
F188097.0
s(I15
I35
tp560
F49407.0
s(I44
I64
tp561
F163184.0
s(I19
I36
tp562
F129465.0
s(I2
I52
tp563
F389988.0
s(I26
I41
tp564
F121760.0
s(I22
I51
tp565
F465121.0
s(I5
I25
tp566
F40405.0
s(I20
I39
tp567
F171573.0
s(I25
I70
tp568
F311117.0
s(I57
I60
tp569
F119366.0
s(I23
I58
tp570
F110410.0
s(I36
I66
tp571
F115656.0
s(I28
I39
tp572
F260100.0
s(I2
I46
tp573
F453072.0
s(I13
I64
tp574
F239595.0
s(I61
I70
tp575
F206549.0
s(I33
I35
tp576
F145194.0
s(I16
I37
tp577
F71491.0
s(I38
I72
tp578
F151611.0
s(I30
I53
tp579
F313422.0
s(I29
I49
tp580
F244155.0
s(I35
I68
tp581
F160936.0
s(I2
I72
tp582
F165281.0
s(I49
I64
tp583
F164508.0
s(I37
I45
tp584
F380430.0
s(I29
I64
tp585
F175259.0
s(I26
I66
tp586
F117554.0
s(I18
I39
tp587
F199512.0
s(I16
I59
tp588
F216699.0
s(I40
I72
tp589
F223690.0
s(I12
I49
tp590
F248462.0
s(I36
I54
tp591
F129932.0
s(I7
I12
tp592
F57268.0
s(I43
I53
tp593
F156207.0
s(I17
I58
tp594
F185813.0
s(I30
I68
tp595
F129501.0
s(I13
I52
tp596
F461797.0
s(I37
I55
tp597
F402290.0
s(I44
I54
tp598
F168980.0
s(I7
I66
tp599
F147688.0
s(I42
I66
tp600
F247271.0
s(I48
I49
tp601
F406257.0
s(I41
I58
tp602
F172019.0
s(I16
I56
tp603
F148416.0
s(I13
I14
tp604
F97744.0
s(I40
I69
tp605
F223618.0
s(I2
I21
tp606
F84698.0
s(I21
I27
tp607
F136815.0
s(I44
I49
tp608
F129452.0
s(I24
I58
tp609
F194807.0
s(I14
I45
tp610
F359680.0
s(I47
I65
tp611
F377328.0
s(I3
I8
tp612
F88497.0
s(I54
I59
tp613
F143435.0
s(I1
I8
tp614
F120259.0
s(I25
I59
tp615
F234339.0
s(I15
I40
tp616
F330334.0
s(I19
I45
tp617
F280450.0
s(I2
I15
tp618
F85125.0
s(I26
I48
tp619
F485911.0
s(I32
I67
tp620
F639997.0
s(I46
I55
tp621
F262241.0
s(I60
I69
tp622
F115225.0
s(I23
I51
tp623
F419896.0
s(I47
I54
tp624
F371819.0
s(I54
I55
tp625
F303313.0
s(I28
I62
tp626
F175838.0
s(I2
I41
tp627
F78560.0
s(I19
I24
tp628
F208043.0
s(I23
I40
tp629
F265488.0
s(I48
I67
tp630
F420370.0
s(I9
I27
tp631
F143110.0
s(I3
I52
tp632
F402099.0
s(I14
I17
tp633
F70707.0
s(I33
I36
tp634
F94998.0
s(I23
I41
tp635
F135423.0
s(I38
I67
tp636
F128445.0
s(I30
I60
tp637
F127405.0
s(I2
I67
tp638
F220287.0
s(I15
I71
tp639
F333981.0
s(I5
I54
tp640
F182369.0
s(I35
I58
tp641
F162691.0
s(I9
I51
tp642
F493512.0
s(I16
I50
tp643
F282071.0
s(I54
I67
tp644
F158779.0
s(I17
I51
tp645
F499919.0
s(I13
I45
tp646
F417240.0
s(I44
I45
tp647
F233555.0
s(I18
I56
tp648
F109241.0
s(I24
I27
tp649
F159109.0
s(I25
I31
tp650
F219117.0
s(I38
I63
tp651
F164826.0
s(I9
I21
tp652
F39551.0
s(I25
I41
tp653
F33444.0
s(I16
I65
tp654
F154041.0
s(I40
I45
tp655
F197712.0
s(I11
I27
tp656
F148902.0
s(I14
I52
tp657
F403871.0
s(I9
I17
tp658
F38741.0
s(I15
I49
tp659
F268005.0
s(I4
I10
tp660
F121425.0
s(I28
I31
tp661
F221026.0
s(I2
I6
tp662
F141343.0
s(I26
I59
tp663
F174903.0
s(I43
I67
tp664
F217953.0
s(I46
I62
tp665
F393937.0
s(I1
I59
tp666
F245586.0
s(I23
I72
tp667
F131038.0
s(I47
I63
tp668
F384017.0
s(I6
I52
tp669
F337767.0
s(I44
I70
tp670
F168023.0
s(I28
I53
tp671
F352694.0
s(I2
I32
tp672
F741492.0
s(I26
I37
tp673
F132257.0
s(I60
I68
tp674
F89022.0
s(I22
I39
tp675
F231459.0
s(I5
I21
tp676
F41237.0
s(I57
I62
tp677
F116101.0
s(I16
I19
tp678
F167075.0
s(I30
I39
tp679
F214152.0
s(I34
I58
tp680
F120114.0
s(I50
I64
tp681
F200203.0
s(I63
I70
tp682
F230547.0
s(I49
I58
tp683
F178157.0
s(I22
I25
tp684
F69846.0
s(I18
I25
tp685
F125057.0
s(I23
I28
tp686
F137196.0
s(I40
I54
tp687
F228403.0
s(I12
I39
tp688
F237181.0
s(I17
I52
tp689
F430544.0
s(I54
I64
tp690
F95530.0
s(I28
I66
tp691
F174829.0
s(I11
I58
tp692
F185472.0
s(I43
I65
tp693
F257443.0
s(I18
I51
tp694
F429202.0
s(I42
I52
tp695
F242361.0
s(I5
I64
tp696
F196775.0
s(I38
I54
tp697
F154988.0
s(I53
I70
tp698
F179296.0
s(I43
I57
tp699
F242846.0
s(I67
I68
tp700
F173027.0
s(I44
I66
tp701
F185664.0
s(I12
I27
tp702
F118857.0
s(I18
I66
tp703
F119799.0
s(I69
I70
tp704
F207140.0
s(I15
I62
tp705
F174532.0
s(I56
I69
tp706
F115225.0
s(I40
I67
tp707
F194912.0
s(I34
I72
tp708
F140882.0
s(I33
I69
tp709
F118997.0
s(I46
I65
tp710
F393937.0
s(I31
I39
tp711
F135930.0
s(I23
I65
tp712
F110410.0
s(I15
I36
tp713
F134277.0
s(I19
I33
tp714
F114833.0
s(I2
I59
tp715
F208335.0
s(I26
I44
tp716
F203530.0
s(I32
I55
tp717
F547819.0
s(I22
I62
tp718
F151889.0
s(I14
I66
tp719
F158615.0
s(I33
I54
tp720
F112988.0
s(I23
I63
tp721
F103279.0
s(I30
I46
tp722
F444979.0
s(I36
I69
tp723
F137087.0
s(I28
I42
tp724
F327610.0
s(I34
I53
tp725
F294578.0
s(I32
I45
tp726
F560689.0
s(I23
I46
tp727
F415661.0
s(I16
I32
tp728
F749510.0
s(I40
I61
tp729
F221767.0
s(I30
I48
tp730
F507242.0
s(I29
I69
tp731
F172634.0
s(I18
I42
tp732
F264778.0
s(I20
I58
tp733
F92449.0
s(I38
I41
tp734
F250874.0
s(I12
I52
tp735
F398504.0
s(I43
I62
tp736
F257443.0
s(I15
I25
tp737
F37025.0
s(I30
I67
tp738
F207532.0
s(I13
I57
tp739
F239595.0
s(I35
I66
tp740
F165252.0
s(I48
I60
tp741
F468757.0
s(I33
I42
tp742
F245353.0
s(I31
I64
tp743
F130181.0
s(I23
I27
tp744
F80700.0
s(I19
I64
tp745
F113955.0
s(I2
I24
tp746
F103474.0
s(I50
I62
tp747
F218088.0
s(I46
I72
tp748
F384985.0
s(I20
I59
tp749
F159341.0
s(I15
I45
tp750
F376572.0
s(I21
I58
tp751
F175559.0
s(I4
I6
tp752
F164998.0
s(I9
I20
tp753
F176241.0
s(I2
I50
tp754
F271349.0
s(I26
I55
tp755
F335401.0
s(I56
I59
tp756
F151333.0
s(I46
I50
tp757
F320841.0
s(I12
I70
tp758
F293701.0
s(I35
I59
tp759
F225097.0
s(I23
I52
tp760
F361745.0
s(I28
I33
tp761
F155285.0
s(I2
I44
tp762
F235260.0
s(I32
I36
tp763
F709100.0
s(I55
I59
tp764
F270570.0
s(I61
I68
tp765
F119492.0
s(I16
I39
tp766
F232917.0
s(I30
I59
tp767
F196438.0
s(I36
I42
tp768
F263097.0
s(I2
I70
tp769
F279991.0
s(I65
I70
tp770
F222376.0
s(I61
I62
tp771
F116101.0
s(I26
I64
tp772
F141810.0
s(I18
I37
tp773
F133012.0
s(I22
I70
tp774
F288327.0
s(I16
I61
tp775
F178796.0
s(I20
I52
tp776
F338000.0
s(I53
I72
tp777
F246184.0
s(I55
I64
tp778
F293449.0
s(I43
I55
tp779
F208121.0
s(I54
I66
tp780
F110946.0
s(I13
I50
tp781
F344126.0
s(I37
I53
tp782
F356024.0
s(I42
I64
tp783
F223531.0
s(I48
I51
tp784
F284436.0
s(I38
I58
tp785
F163965.0
s(I2
I19
tp786
F165377.0
s(I16
I22
tp787
F49388.0
s(I14
I51
tp788
F472702.0
s(I47
I67
tp789
F336882.0
s(I3
I10
tp790
F109295.0
s(I22
I41
tp791
F69948.0
s(I15
I42
tp792
F328198.0
s(I45
I70
tp793
F207328.0
s(I40
I65
tp794
F238316.0
s(I2
I13
tp795
F123579.0
s(I26
I62
tp796
F115911.0
s(I32
I69
tp797
F662605.0
s(I45
I64
tp798
F275553.0
s(I46
I53
tp799
F291511.0
s(I12
I58
tp800
F156679.0
s(I9
I69
tp801
F206170.0
s(I19
I53
tp802
F251232.0
s(I47
I48
tp803
F287428.0
s(I35
I69
tp804
F186315.0
s(I28
I56
tp805
F170101.0
s(I2
I39
tp806
F224231.0
s(I32
I59
tp807
F645109.0
s(I48
I69
tp808
F448846.0
s(I33
I58
tp809
F97639.0
s(I23
I43
tp810
F281647.0
s(I38
I65
tp811
F163965.0
s(I30
I34
tp812
F84416.0
s(I2
I65
tp813
F146665.0
s(I15
I65
tp814
F174532.0
s(I16
I25
tp815
F64012.0
s(I5
I52
tp816
F413061.0
s(I7
I24
tp817
F97982.0
s(I35
I60
tp818
F159618.0
s(I9
I49
tp819
F274243.0
s(I16
I52
tp820
F397296.0
s(I40
I49
tp821
F177753.0
s(I5
I10
tp822
F121131.0
s(I54
I65
tp823
F100289.0
s(I7
I39
tp824
F227955.0
s(I43
I44
tp825
F200442.0
s(I13
I43
tp826
F390341.0
s(I28
I69
tp827
F199896.0
s(I55
I70
tp828
F227036.0
s(I18
I54
tp829
F131943.0
s(I5
I69
tp830
F193528.0
s(I38
I61
tp831
F147740.0
s(I9
I59
tp832
F241696.0
s(I16
I67
tp833
F226825.0
s(I15
I21
tp834
F36005.0
s(I34
I36
tp835
F79877.0
s(I26
I31
tp836
F167233.0
s(I35
I64
tp837
F190168.0
s(I14
I58
tp838
F160238.0
s(I47
I72
tp839
F361712.0
s(I31
I49
tp840
F150879.0
s(I15
I51
tp841
F489568.0
s(I16
I44
tp842
F242156.0
s(I19
I52
tp843
F327255.0
s(I2
I4
tp844
F74135.0
s(I26
I57
tp845
F141810.0
s(I33
I66
tp846
F100414.0
s(I46
I60
tp847
F401186.0
s(I5
I7
tp848
F70217.0
s(I27
I52
tp849
F356579.0
s(I57
I68
tp850
F119492.0
s(I47
I57
tp851
F360969.0
s(I28
I55
tp852
F397442.0
s(I2
I62
tp853
F146665.0
s(I26
I35
tp854
F114900.0
s(I32
I50
tp855
F602797.0
s(I19
I27
tp856
F125646.0
s(I29
I54
tp857
F159411.0
s(I33
I51
tp858
F409135.0
s(I23
I32
tp859
F708463.0
s(I34
I65
tp860
F120114.0
s(I30
I37
tp861
F96722.0
s(I28
I45
tp862
F376378.0
s(I34
I56
tp863
F114605.0
s(I63
I64
tp864
F119366.0
s(I35
I37
tp865
F52057.0
s(I9
I58
tp866
F180840.0
s(I57
I58
tp867
F116101.0
s(I16
I43
tp868
F325534.0
s(I40
I56
tp869
F244861.0
s(I41
I52
tp870
F415532.0
s(I40
I44
tp871
F180073.0
s(I7
I59
tp872
F210931.0
s(I13
I36
tp873
F171503.0
s(I37
I39
tp874
F265956.0
s(I54
I68
tp875
F105706.0
s(I14
I65
tp876
F160238.0
s(I18
I49
tp877
F209739.0
s(I22
I64
tp878
F176232.0
s(I14
I27
tp879
F123586.0
s(I38
I52
tp880
F287248.0
s(I53
I68
tp881
F262205.0
s(I43
I59
tp882
F223055.0
s(I67
I70
tp883
F180348.0
s(I13
I62
tp884
F214164.0
s(I22
I52
tp885
F394252.0
s(I44
I60
tp886
F180490.0
s(I35
I55
tp887
F386957.0
s(I27
I58
tp888
F109308.0
s(I12
I21
tp889
F65892.0
s(I18
I64
tp890
F142431.0
s(I66
I70
tp891
F235589.0
s(I15
I56
tp892
F169671.0
s(I56
I64
tp893
F119366.0
s(I13
I24
tp894
F44699.0
s(I19
I61
tp895
F113955.0
s(I2
I31
tp896
F197655.0
s(I16
I20
tp897
F143148.0
s(I46
I71
tp898
F301470.0
s(I20
I62
tp899
F92449.0
s(I23
I67
tp900
F189430.0
s(I50
I52
tp901
F254203.0
s(I19
I35
tp902
F181117.0
s(I2
I57
tp903
F170630.0
s(I26
I42
tp904
F259693.0
s(I22
I24
tp905
F93428.0
s(I37
I51
tp906
F493188.0
s(I33
I52
tp907
F346070.0
s(I23
I57
tp908
F139339.0
s(I30
I44
tp909
F222213.0
s(I28
I36
tp910
F135969.0
s(I34
I51
tp911
F430286.0
s(I24
I64
tp912
F221206.0
s(I13
I67
tp913
F283324.0
s(I29
I41
tp914
F70747.0
s(I35
I42
tp915
F315285.0
s(I4
I8
tp916
F100721.0
s(I16
I34
tp917
F95523.0
s(I30
I54
tp918
F144721.0
s(I36
I45
tp919
F315913.0
s(I34
I45
tp920
F317300.0
s(I29
I67
tp921
F221186.0
s(I26
I71
tp922
F271886.0
s(I18
I40
tp923
F270230.0
s(I63
I65
tp924
F92531.0
s(I38
I47
tp925
F334301.0
s(I5
I12
tp926
F60491.0
s(I15
I27
tp927
F138060.0
s(I30
I65
tp928
F135836.0
s(I13
I55
tp929
F442288.0
s(I44
I59
tp930
F139809.0
s(I11
I39
tp931
F272150.0
s(I48
I62
tp932
F460154.0
s(I45
I58
tp933
F286998.0
s(I13
I17
tp934
F54869.0
s(I19
I66
tp935
F113959.0
s(I2
I22
tp936
F58196.0
s(I50
I60
tp937
F222087.0
s(I6
I8
tp938
F124363.0
s(I47
I68
tp939
F377941.0
s(I21
I59
tp940
F236321.0
s(I25
I39
tp941
F256595.0
s(I3
I41
tp942
F58485.0
s(I9
I62
tp943
F180840.0
s(I23
I31
tp944
F165428.0
s(I2
I48
tp945
F517551.0
s(I26
I53
tp946
F287279.0
s(I32
I64
tp947
F663706.0
s(I19
I50
tp948
F209240.0
s(I46
I48
tp949
F284707.0
s(I53
I59
tp950
F225164.0
s(I9
I66
tp951
F181705.0
s(I23
I54
tp952
F124003.0
s(I47
I53
tp953
F271522.0
s(I3
I51
tp954
F470306.0
s(I28
I35
tp955
F48079.0
s(I2
I42
tp956
F294891.0
s(I37
I70
tp957
F315910.0
s(I48
I64
tp958
F446881.0
s(I61
I66
tp959
F123458.0
s(I43
I70
tp960
F178529.0
s(I33
I39
tp961
F180003.0
s(I23
I44
tp962
F202081.0
s(I34
I67
tp963
F196730.0
s(I30
I57
tp964
F160351.0
s(I4
I52
tp965
F412565.0
s(I2
I68
tp966
F141306.0
s(I12
I62
tp967
F156679.0
s(I7
I41
tp968
F76896.0
s(I9
I12
tp969
F71183.0
s(I37
I41
tp970
F43181.0
s(I18
I35
tp971
F121053.0
s(I16
I63
tp972
F148416.0
s(I36
I50
tp973
F243691.0
s(I30
I72
tp974
F156160.0
s(I65
I68
tp975
F94939.0
s(I28
I72
tp976
F195444.0
s(I44
I50
tp977
F162059.0
s(I18
I61
tp978
F142431.0
s(I22
I66
tp979
F150596.0
s(I48
I53
tp980
F359164.0
s(I38
I56
tp981
F164826.0
s(I45
I51
tp982
F279284.0
s(I2
I17
tp983
F93574.0
s(I50
I55
tp984
F234186.0
s(I24
I62
tp985
F194807.0
s(I14
I49
tp986
F250491.0
s(I27
I41
tp987
F134615.0
s(I68
I70
tp988
F228709.0
s(I15
I52
tp989
F419601.0
s(I45
I68
tp990
F293405.0
s(I19
I49
tp991
F175467.0
s(I2
I11
tp992
F94011.0
s(I26
I60
tp993
F106418.0
s(I23
I39
tp994
F191758.0
s(I46
I59
tp995
F361635.0
s(I24
I49
tp996
F287288.0
s(I60
I65
tp997
F92531.0
s(I57
I65
tp998
F116101.0
s(I47
I50
tp999
F299876.0
s(I28
I58
tp1000
F175838.0
s(I2
I37
tp1001
F88605.0
s(I7
I8
tp1002
F75762.0
s(I48
I71
tp1003
F366817.0
s(I29
I59
tp1004
F211190.0
s(I9
I45
tp1005
F381668.0
s(I33
I56
tp1006
F91030.0
s(I23
I37
tp1007
F141096.0
s(I38
I71
tp1008
F196348.0
s(I30
I32
tp1009
F729519.0
s(I31
I70
tp1010
F192842.0
s(I15
I67
tp1011
F244900.0
s(I50
I69
tp1012
F196816.0
s(I63
I69
tp1013
F115225.0
s(I5
I50
tp1014
F296534.0
s(I35
I62
tp1015
F162691.0
s(I9
I55
tp1016
F404028.0
s(I16
I54
tp1017
F165110.0
s(I40
I51
tp1018
F308012.0
s(I25
I64
tp1019
F197164.0
s(I13
I41
tp1020
F78909.0
s(I28
I71
tp1021
F331971.0
s(I18
I52
tp1022
F367759.0
s(I5
I67
tp1023
F242942.0
s(I38
I51
tp1024
F348291.0
s(I5
I14
tp1025
F50392.0
s(I16
I69
tp1026
F178229.0
s(I39
I58
tp1027
F166824.0
s(I26
I29
tp1028
F102559.0
s(I22
I31
tp1029
F201937.0
s(I12
I24
tp1030
F86396.0
s(I18
I71
tp1031
F276081.0
s(I13
I69
tp1032
F241434.0
s(I15
I61
tp1033
F200135.0
s(I13
I29
tp1034
F114914.0
s(I19
I54
tp1035
F99535.0
s(I34
I40
tp1036
F273256.0
s(I33
I64
tp1037
F125414.0
s(I46
I66
tp1038
F405534.0
s(I23
I68
tp1039
F106621.0
s(I47
I59
tp1040
F343214.0
s(I21
I52
tp1041
F419320.0
s(I23
I29
tp1042
F112640.0
s(I28
I49
tp1043
F268963.0
s(I2
I60
tp1044
F140446.0
s(I26
I33
tp1045
F92768.0
s(I32
I52
tp1046
F533090.0
s(I22
I59
tp1047
F213675.0
s(I5
I17
tp1048
F54237.0
s(I29
I52
tp1049
F391657.0
s(I53
I55
tp1050
F210240.0
s(I33
I49
tp1051
F190072.0
s(I23
I34
tp1052
F83068.0
s(I30
I43
tp1053
F309107.0
s(I34
I54
tp1054
F135995.0
s(I15
I72
tp1055
F194340.0
s(I32
I42
tp1056
F584515.0
s(I63
I66
tp1057
F92468.0
s(I37
I65
tp1058
F181890.0
s(I43
I68
tp1059
F263164.0
s(I18
I21
tp1060
F127165.0
s(I33
I43
tp1061
F270042.0
s(I23
I24
tp1062
F155279.0
s(I34
I69
tp1063
F145736.0
s(I9
I10
tp1064
F135329.0
s(I41
I59
tp1065
F231279.0
s(I11
I62
tp1066
F185472.0
s(I14
I25
tp1067
F56773.0
s(I38
I42
tp1068
F197625.0
s(I53
I66
tp1069
F268575.0
s(I39
I51
tp1070
F347606.0
s(I13
I60
tp1071
F206707.0
s(I11
I20
tp1072
F181021.0
s(I44
I62
tp1073
F181281.0
s(I13
I25
tp1074
F75047.0
s(I48
I57
tp1075
F446881.0
s(I37
I58
tp1076
F181890.0
s(I54
I62
tp1077
F100289.0
s(I15
I58
tp1078
F174532.0
s(I13
I22
tp1079
F112073.0
s(I2
I29
tp1080
F54699.0
s(I46
I69
tp1081
F380207.0
s(I9
I31
tp1082
F228568.0
s(I15
I32
tp1083
F772645.0
s(I19
I37
tp1084
F193828.0
s(I2
I55
tp1085
F369185.0
s(I26
I40
tp1086
F265553.0
s(I6
I10
tp1087
F112283.0
s(I14
I20
tp1088
F150811.0
s(I23
I59
tp1089
F173308.0
s(I21
I39
tp1090
F260687.0
s(I40
I43
tp1091
F171957.0
s(I34
I49
tp1092
F215029.0
s(I7
I20
tp1093
F140662.0
s(I13
I65
tp1094
F214164.0
s(I55
I62
tp1095
F311438.0
s(I61
I71
tp1096
F225538.0
s(I35
I44
tp1097
F255714.0
s(I33
I44
tp1098
F189756.0
s(I16
I36
tp1099
F111974.0
s(I30
I52
tp1100
F378693.0
s(I34
I43
tp1101
F292535.0
s(I8
I10
tp1102
F88060.0
s(I31
I59
tp1103
F132328.0
s(I22
I55
tp1104
F376677.0
s(I35
I52
tp1105
F408606.0
s(I26
I69
tp1106
F136407.0
s(I9
I11
tp1107
F36466.0
s(I42
I59
tp1108
F207188.0
s(I16
I58
tp1109
F154041.0
s(I38
I45
tp1110
F239991.0
s(I36
I53
tp1111
F289883.0
s(I29
I65
tp1112
F150490.0
s(I43
I50
tp1113
F181111.0
s(I67
I69
tp1114
F155768.0
s(I30
I71
tp1115
F291589.0
s(I13
I53
tp1116
F395436.0
s(I19
I68
tp1117
F109377.0
s(I2
I20
tp1118
F138684.0
s(I50
I58
tp1119
F218088.0
s(I47
I70
tp1120
F292504.0
s(I45
I55
tp1121
F201404.0
s(I25
I52
tp1122
F416314.0
s(I15
I41
tp1123
F35721.0
s(I44
I65
tp1124
F181281.0
s(I19
I42
tp1125
F236686.0
s(I2
I14
tp1126
F63807.0
s(I26
I51
tp1127
F424123.0
s(I32
I66
tp1128
F691128.0
s(I46
I54
tp1129
F390232.0
s(I9
I64
tp1130
F207087.0
s(I57
I67
tp1131
F152777.0
s(I23
I48
tp1132
F483918.0
s(I47
I55
tp1133
F238486.0
s(I36
I72
tp1134
F131239.0
s(I28
I61
tp1135
F201143.0
s(I2
I40
tp1136
F297743.0
s(I32
I56
tp1137
F684978.0
s(I48
I66
tp1138
F470103.0
s(I61
I64
tp1139
F0.0
s(I9
I42
tp1140
F333782.0
s(I33
I37
tp1141
F163797.0
s(I16
I27
tp1142
F116929.0
s(I38
I66
tp1143
F172518.0
s(I30
I63
tp1144
F127405.0
s(I9
I52
tp1145
F426517.0
s(I2
I66
tp1146
F143010.0
s(I15
I68
tp1147
F172373.0
s(I11
I52
tp1148
F429923.0
s(I31
I62
tp1149
F140508.0
s(I19
I21
tp1150
F188901.0
s(I43
I66
tp1151
F270078.0
s(I18
I33
tp1152
F95171.0
s(I35
I51
tp1153
F475115.0
s(I16
I49
tp1154
F246860.0
s(I34
I71
tp1155
F279245.0
s(I36
I60
tp1156
F108516.0
s(I54
I69
tp1157
F98713.0
s(I37
I49
tp1158
F273743.0
s(I18
I59
tp1159
F177276.0
s(I48
I55
tp1160
F331584.0
s(I38
I62
tp1161
F163965.0
s(I45
I49
tp1162
F232177.0
s(I16
I64
tp1163
F178796.0
s(I40
I70
tp1164
F149712.0
s(I5
I42
tp1165
F321128.0
s(I56
I68
tp1166
F89022.0
s(I14
I55
tp1167
F383438.0
s(I37
I60
tp1168
F172797.0
s(I15
I54
tp1169
F187715.0
s(I9
I65
tp1170
F180840.0
s(I45
I66
tp1171
F298239.0
s(I19
I51
tp1172
F395026.0
s(I2
I9
tp1173
F85765.0
s(I26
I58
tp1174
F115911.0
s(I19
I29
tp1175
F169340.0
s(I46
I57
tp1176
F380336.0
s(I9
I24
tp1177
F45903.0
s(I27
I51
tp1178
F420864.0
s(I60
I67
tp1179
F174183.0
s(I9
I25
tp1180
F45973.0
s(I47
I60
tp1181
F384017.0
s(I21
I41
tp1182
F37894.0
s(I28
I52
tp1183
F418857.0
s(I2
I35
tp1184
F73742.0
s(I26
I36
tp1185
F80976.0
s(I7
I10
tp1186
F99792.0
s(I5
I22
tp1187
F71367.0
s(I3
I58
tp1188
F159776.0
s(I14
I22
tp1189
F59039.0
s(I33
I62
tp1190
F97639.0
s(I16
I18
tp1191
F111803.0
s(I38
I69
tp1192
F146415.0
s(I65
I66
tp1193
F95787.0
s(I34
I61
tp1194
F148815.0
s(I5
I39
tp1195
F254766.0
s(I50
I67
tp1196
F175864.0
s(I63
I71
tp1197
F250454.0
s(I18
I24
tp1198
F145579.0
s(I16
I40
tp1199
F305733.0
s(I40
I53
tp1200
F174094.0
s(I36
I59
tp1201
F175687.0
s(I7
I62
tp1202
F150307.0
s(I13
I39
tp1203
F306044.0
s(I28
I65
tp1204
F175838.0
s(I11
I59
tp1205
F247626.0
s(I18
I50
tp1206
F245426.0
s(I42
I55
tp1207
F223234.0
s(I5
I65
tp1208
F169986.0
s(I38
I49
tp1209
F133074.0
s(I57
I72
tp1210
F107167.0
s(I16
I71
tp1211
F311892.0
s(I15
I17
tp1212
F47325.0
s(I39
I52
tp1213
F282199.0
s(I42
I62
tp1214
F237812.0
s(I40
I58
tp1215
F238316.0
s(I11
I17
tp1216
F28521.0
s(I26
I27
tp1217
F79653.0
s(I14
I62
tp1218
F160238.0
s(I27
I62
tp1219
F109308.0
s(I18
I69
tp1220
F141066.0
s(I13
I27
tp1221
F182758.0
s(I19
I56
tp1222
F111643.0
s(I33
I70
tp1223
F234459.0
s(I46
I64
tp1224
F380336.0
s(I20
I51
tp1225
F401477.0
s(I23
I70
tp1226
F247700.0
s(I15
I37
tp1227
F40292.0
s(I28
I51
tp1228
F487512.0
s(I2
I58
tp1229
F146665.0
s.