(dp1
I1
(lp2
I8
asI2
(lp3
I8
asI3
(lp4
I4
aI8
asI5
(lp5
I8
asI6
(lp6
I1
asI7
(lp7
I3
asI8
(lp8
I4
asI10
(lp9
I5
asI11
(lp10
I12
asI12
(lp11
I12
asI13
(lp12
I5
aI11
asI14
(lp13
I8
asI15
(lp14
I8
asI17
(lp15
I8
asI18
(lp16
I8
asI19
(lp17
I10
asI21
(lp18
I12
asI22
(lp19
I4
aI5
asI26
(lp20
I10
asI28
(lp21
I7
asI29
(lp22
I3
asI30
(lp23
I10
asI32
(lp24
I4
asI36
(lp25
I1
asI37
(lp26
I4
asI41
(lp27
I4
asI43
(lp28
I4
asI46
(lp29
I3
asI49
(lp30
I4
asI52
(lp31
I3
asI53
(lp32
I12
asI55
(lp33
I7
asI57
(lp34
I4
asI58
(lp35
I10
asI59
(lp36
I10
asI61
(lp37
I11
aI12
asI66
(lp38
I4
asI70
(lp39
I4
asI71
(lp40
I12
asI74
(lp41
I4
asI75
(lp42
I4
asI79
(lp43
I6
asI91
(lp44
I1
as.