(lp0
I101
aI85
aI3
aI84
aI78
aI18
aI99
aI12
aI7
aI90
aI1
aI6
aI83
aI100
aI9
aI69
aI16
aI4
aI5
aI125
aI25
aI56
aI124
aI30
aI123
aI33
aI36
aI40
aI54
aI55
aI86
aI87
aI114
aI88
aI11
aI27
aI45
aI115
aI46
aI91
aI92
aI96
aI94
aI95
aI117
aI120
aI122
aI49
aI14
aI105
aI26
aI42
aI35
aI48
aI93
aI98
aI111
aI107
aI97
aI89
aI113
aI102
aI103
aI72
aI104
aI21
aI51
aI108
aI112
aI110
aI13
aI121
aI61
aI47
aI10
aI65
aI2
aI15
aI82
aI17
aI23
aI29
aI37
aI39
aI64
aI41
aI44
aI50
aI71
aI52
aI60
aI79
aI62
aI66
aI67
aI68
aI73
aI106
aI109
aI8
aI118
aI24
aI38
aI20
aI32
aI70
aI59
aI22
aI119
aI34
aI19
aI116
aI43
aI53
aI58
aI63
aI57
aI28
aI31
aI77
aI80
aI75
aI76
aI74
aI81
a.