(lp0
I103
aI84
aI13
aI12
aI30
aI54
aI83
aI86
aI23
aI125
aI110
aI111
aI89
aI7
aI100
aI113
aI90
aI104
aI122
aI114
aI115
aI18
aI72
aI78
aI65
aI102
aI14
aI121
aI99
aI1
aI87
aI55
aI123
aI9
aI56
aI4
aI85
aI95
aI101
aI36
aI16
aI6
aI8
aI5
aI117
aI25
aI105
aI124
aI10
aI69
aI107
aI21
aI108
aI35
aI33
aI112
aI98
aI40
aI37
aI46
aI24
aI11
aI20
aI15
aI88
aI49
aI42
aI96
aI27
aI94
aI61
aI92
aI26
aI45
aI97
aI120
aI47
aI91
aI57
aI53
aI51
aI17
aI28
aI75
aI71
aI29
aI74
aI41
aI119
aI44
aI64
aI67
aI50
aI77
aI118
aI58
aI66
aI73
aI2
aI82
aI31
aI79
aI106
aI32
aI39
aI76
aI109
aI19
aI43
aI68
aI48
aI34
aI60
aI22
aI81
aI62
aI116
aI3
aI38
aI93
aI63
aI80
aI70
aI59
aI52
a.