(lp0
I88
aI13
aI2
aI1
aI112
aI21
aI46
aI117
aI16
aI12
aI122
aI107
aI49
aI51
aI115
aI89
aI47
aI90
aI91
aI111
aI92
aI98
aI42
aI33
aI87
aI101
aI27
aI78
aI4
aI18
aI123
aI104
aI102
aI9
aI83
aI45
aI124
aI35
aI30
aI65
aI36
aI86
aI96
aI5
aI120
aI7
aI44
aI26
aI48
aI61
aI54
aI95
aI113
aI108
aI56
aI110
aI25
aI125
aI69
aI40
aI105
aI10
aI103
aI14
aI97
aI72
aI85
aI93
aI11
aI94
aI114
aI99
aI121
aI100
aI84
aI55
aI81
aI37
aI66
aI73
aI24
aI38
aI8
aI109
aI15
aI118
aI106
aI77
aI50
aI79
aI20
aI58
aI62
aI116
aI34
aI57
aI53
aI80
aI74
aI52
aI67
aI71
aI60
aI19
aI68
aI41
aI76
aI39
aI28
aI22
aI64
aI29
aI6
aI23
aI82
aI59
aI63
aI119
aI31
aI70
aI3
aI75
aI32
aI17
aI43
a.