(lp0
I98
aI85
aI3
aI78
aI99
aI18
aI84
aI12
aI123
aI117
aI1
aI25
aI122
aI4
aI6
aI7
aI54
aI55
aI83
aI5
aI115
aI9
aI16
aI30
aI33
aI36
aI40
aI56
aI114
aI69
aI86
aI87
aI100
aI124
aI88
aI11
aI27
aI45
aI46
aI90
aI91
aI92
aI94
aI95
aI96
aI120
aI125
aI14
aI26
aI35
aI48
aI93
aI107
aI42
aI49
aI97
aI105
aI89
aI111
aI113
aI101
aI72
aI102
aI103
aI104
aI21
aI51
aI108
aI112
aI110
aI13
aI121
aI61
aI47
aI10
aI65
aI37
aI2
aI15
aI23
aI73
aI17
aI29
aI39
aI41
aI60
aI44
aI66
aI50
aI52
aI62
aI68
aI64
aI67
aI71
aI79
aI82
aI106
aI109
aI8
aI118
aI20
aI22
aI24
aI32
aI70
aI38
aI119
aI59
aI34
aI116
aI19
aI43
aI53
aI58
aI63
aI57
aI28
aI31
aI77
aI80
aI75
aI76
aI74
aI81
a.