(lp0
I26
aI198
aI266
aI177
aI186
aI36
aI180
aI257
aI351
aI276
aI151
aI255
aI289
aI202
aI2
aI236
aI92
aI52
aI300
aI305
aI193
aI331
aI164
aI229
aI85
aI94
aI187
aI139
aI24
aI280
aI311
aI315
aI37
aI350
aI334
aI178
aI72
aI114
aI43
aI317
aI16
aI19
aI95
aI132
aI275
aI217
aI122
aI46
aI169
aI69
aI204
aI48
aI232
aI260
aI116
aI309
aI159
aI265
aI156
aI337
aI55
aI296
aI247
aI343
aI38
aI188
aI148
aI54
aI272
aI314
aI126
aI341
aI245
aI294
aI31
aI338
aI286
aI172
aI18
aI154
aI342
aI82
aI86
aI167
aI239
aI196
aI328
aI191
aI107
aI67
aI223
aI120
aI356
aI12
aI112
aI152
aI101
aI11
aI42
aI215
aI253
aI58
aI221
aI136
aI242
aI171
aI68
aI143
aI47
aI194
aI63
aI141
aI256
aI354
aI50
aI340
aI333
aI66
aI210
aI243
aI64
aI288
aI160
aI259
aI9
aI250
aI274
aI349
aI90
aI200
aI22
aI78
aI330
aI302
aI133
aI252
aI73
aI258
aI197
aI28
aI248
aI115
aI4
aI155
aI140
aI312
aI25
aI234
aI104
aI249
aI290
aI102
aI131
aI271
aI162
aI21
aI283
aI41
aI106
aI303
aI62
aI224
aI15
aI279
aI181
aI61
aI173
aI313
aI307
aI203
aI44
aI129
aI345
aI244
aI98
aI161
aI301
aI329
aI79
aI199
aI207
aI219
aI1
aI149
aI347
aI119
aI99
aI144
aI105
aI163
aI137
aI237
aI304
aI6
aI246
aI71
aI127
aI128
aI77
aI355
aI233
aI238
aI34
aI264
aI74
aI5
aI147
aI298
aI111
aI70
aI240
aI184
aI88
aI211
aI287
aI344
aI273
aI226
aI201
aI297
aI170
aI190
aI195
aI27
aI30
aI150
aI208
aI268
aI113
aI225
aI118
aI35
aI281
aI146
aI325
aI213
aI33
aI56
aI192
aI121
aI100
aI293
aI292
aI284
aI7
aI205
aI166
aI176
aI291
aI117
aI182
aI10
aI251
aI97
aI32
aI310
aI321
aI135
aI60
aI53
aI13
aI84
aI282
aI130
aI323
aI322
aI332
aI87
aI230
aI206
aI277
aI124
aI220
aI23
aI218
aI308
aI179
aI59
aI324
aI174
aI336
aI142
aI320
aI267
aI20
aI76
aI285
aI57
aI316
aI227
aI29
aI216
aI185
aI212
aI339
aI125
aI40
aI8
aI352
aI14
aI235
aI158
aI91
aI353
aI103
aI168
aI269
aI278
aI45
aI138
aI75
aI109
aI261
aI39
aI96
aI214
aI306
aI153
aI3
aI335
aI231
aI83
aI189
aI123
aI80
aI145
aI165
aI241
aI326
aI134
aI228
aI319
aI51
aI93
aI110
aI299
aI157
aI49
aI65
aI222
aI262
aI348
aI270
aI89
aI81
aI17
aI108
aI263
aI318
aI175
aI295
aI346
aI327
aI254
aI209
aI183
a.