(lp0
I268
aI282
aI168
aI106
aI83
aI116
aI108
aI275
aI353
aI27
aI356
aI264
aI314
aI260
aI141
aI72
aI18
aI333
aI105
aI246
aI100
aI20
aI10
aI206
aI162
aI197
aI207
aI134
aI252
aI21
aI81
aI190
aI45
aI291
aI371
aI107
aI40
aI137
aI234
aI67
aI6
aI218
aI117
aI359
aI309
aI203
aI84
aI93
aI103
aI254
aI186
aI233
aI265
aI374
aI182
aI135
aI271
aI5
aI8
aI152
aI244
aI13
aI313
aI129
aI284
aI144
aI149
aI212
aI138
aI113
aI285
aI60
aI61
aI238
aI222
aI239
aI54
aI119
aI376
aI192
aI339
aI187
aI210
aI64
aI258
aI126
aI352
aI305
aI51
aI348
aI235
aI296
aI310
aI189
aI267
aI368
aI12
aI85
aI245
aI295
aI321
aI365
aI19
aI303
aI16
aI259
aI184
aI185
aI278
aI74
aI293
aI151
aI158
aI377
aI198
aI242
aI87
aI351
aI131
aI215
aI297
aI363
aI276
aI251
aI342
aI358
aI59
aI150
aI145
aI298
aI331
aI204
aI125
aI22
aI288
aI344
aI341
aI109
aI163
aI120
aI299
aI15
aI327
aI307
aI46
aI177
aI127
aI270
aI77
aI316
aI292
aI318
aI230
aI49
aI101
aI343
aI17
aI253
aI171
aI112
aI128
aI360
aI225
aI161
aI317
aI169
aI25
aI41
aI132
aI269
aI88
aI364
aI82
aI71
aI337
aI232
aI237
aI136
aI272
aI179
aI200
aI188
aI160
aI346
aI304
aI1
aI172
aI300
aI55
aI176
aI208
aI209
aI178
aI289
aI139
aI66
aI104
aI257
aI357
aI345
aI219
aI133
aI95
aI281
aI166
aI62
aI147
aI335
aI236
aI57
aI369
aI280
aI367
aI213
aI328
aI37
aI336
aI211
aI334
aI338
aI221
aI301
aI91
aI255
aI287
aI42
aI43
aI330
aI195
aI2
aI193
aI110
aI214
aI325
aI86
aI47
aI96
aI194
aI118
aI164
aI175
aI217
aI286
aI143
aI34
aI97
aI33
aI174
aI63
aI78
aI350
aI332
aI99
aI159
aI247
aI347
aI115
aI277
aI229
aI355
aI340
aI349
aI7
aI372
aI111
aI256
aI122
aI35
aI306
aI24
aI202
aI220
aI279
aI23
aI315
aI48
aI273
aI205
aI248
aI69
aI157
aI102
aI70
aI274
aI31
aI26
aI148
aI76
aI68
aI89
aI227
aI155
aI226
aI243
aI130
aI199
aI36
aI90
aI39
aI283
aI173
aI261
aI366
aI154
aI65
aI250
aI53
aI3
aI73
aI224
aI121
aI191
aI231
aI216
aI308
aI266
aI50
aI56
aI378
aI302
aI14
aI329
aI326
aI379
aI75
aI11
aI123
aI165
aI58
aI380
aI375
aI94
aI311
aI9
aI80
aI320
aI324
aI262
aI312
aI373
aI361
aI124
aI323
aI28
aI183
aI44
aI196
aI156
aI181
aI170
aI146
aI79
aI52
aI294
aI153
aI263
aI241
aI249
aI354
aI228
aI30
aI4
aI201
aI290
aI114
aI370
aI142
aI140
aI38
aI92
aI98
aI223
aI29
aI362
aI167
aI180
aI240
aI381
aI32
aI322
aI319
a.