(lp0
I327
aI185
aI111
aI225
aI274
aI135
aI72
aI330
aI263
aI202
aI145
aI223
aI302
aI248
aI8
aI4
aI154
aI149
aI99
aI66
aI306
aI97
aI105
aI51
aI227
aI75
aI191
aI118
aI48
aI3
aI270
aI55
aI109
aI226
aI89
aI308
aI179
aI69
aI171
aI349
aI221
aI43
aI36
aI323
aI68
aI334
aI169
aI62
aI209
aI85
aI151
aI177
aI304
aI266
aI258
aI331
aI45
aI287
aI257
aI46
aI172
aI305
aI120
aI294
aI165
aI189
aI170
aI280
aI311
aI251
aI321
aI31
aI13
aI78
aI52
aI206
aI213
aI219
aI20
aI128
aI319
aI115
aI196
aI16
aI290
aI140
aI17
aI256
aI9
aI272
aI244
aI335
aI168
aI100
aI303
aI234
aI346
aI194
aI163
aI146
aI167
aI73
aI198
aI271
aI253
aI133
aI236
aI344
aI6
aI255
aI309
aI24
aI86
aI5
aI136
aI161
aI268
aI37
aI18
aI262
aI34
aI21
aI180
aI284
aI158
aI32
aI90
aI80
aI279
aI264
aI159
aI278
aI26
aI58
aI119
aI332
aI76
aI29
aI70
aI178
aI218
aI186
aI132
aI142
aI315
aI310
aI124
aI143
aI224
aI348
aI229
aI106
aI260
aI56
aI193
aI246
aI222
aI249
aI300
aI240
aI22
aI275
aI138
aI129
aI273
aI351
aI333
aI14
aI182
aI201
aI212
aI299
aI291
aI203
aI195
aI265
aI110
aI354
aI307
aI325
aI216
aI49
aI152
aI317
aI2
aI217
aI238
aI242
aI328
aI175
aI233
aI176
aI33
aI27
aI210
aI243
aI228
aI337
aI130
aI148
aI320
aI96
aI347
aI123
aI113
aI211
aI141
aI301
aI98
aI355
aI295
aI112
aI57
aI336
aI54
aI173
aI39
aI41
aI237
aI93
aI261
aI199
aI220
aI230
aI160
aI205
aI345
aI329
aI250
aI91
aI157
aI144
aI87
aI61
aI83
aI77
aI215
aI65
aI162
aI103
aI164
aI343
aI122
aI245
aI288
aI74
aI44
aI64
aI208
aI326
aI276
aI277
aI356
aI82
aI155
aI104
aI116
aI231
aI192
aI63
aI94
aI286
aI184
aI147
aI283
aI19
aI339
aI207
aI289
aI285
aI292
aI353
aI10
aI121
aI114
aI187
aI38
aI101
aI28
aI259
aI338
aI67
aI282
aI88
aI79
aI23
aI316
aI239
aI30
aI214
aI342
aI200
aI35
aI340
aI190
aI232
aI350
aI134
aI42
aI50
aI252
aI322
aI298
aI188
aI92
aI318
aI125
aI102
aI166
aI235
aI174
aI12
aI7
aI1
aI137
aI293
aI197
aI341
aI127
aI156
aI204
aI181
aI281
aI314
aI59
aI139
aI47
aI15
aI352
aI84
aI131
aI25
aI108
aI296
aI126
aI95
aI153
aI254
aI269
aI267
aI117
aI297
aI107
aI150
aI241
aI313
aI71
aI60
aI247
aI183
aI40
aI324
aI81
aI53
aI312
aI11
a.