(lp0
I311
aI321
aI176
aI355
aI81
aI173
aI155
aI261
aI210
aI350
aI218
aI83
aI96
aI335
aI161
aI256
aI205
aI265
aI260
aI198
aI121
aI300
aI11
aI129
aI59
aI70
aI171
aI254
aI106
aI1
aI203
aI223
aI127
aI264
aI258
aI316
aI8
aI66
aI217
aI172
aI231
aI216
aI73
aI249
aI250
aI188
aI277
aI104
aI13
aI97
aI85
aI207
aI309
aI307
aI313
aI353
aI36
aI325
aI185
aI209
aI186
aI163
aI120
aI243
aI184
aI187
aI49
aI270
aI239
aI152
aI44
aI34
aI71
aI347
aI16
aI345
aI57
aI175
aI149
aI271
aI69
aI196
aI301
aI116
aI197
aI306
aI234
aI279
aI154
aI153
aI220
aI48
aI112
aI18
aI180
aI41
aI166
aI283
aI52
aI62
aI344
aI32
aI287
aI310
aI259
aI43
aI102
aI177
aI214
aI297
aI26
aI342
aI298
aI38
aI296
aI211
aI291
aI132
aI354
aI10
aI246
aI348
aI86
aI50
aI108
aI61
aI90
aI114
aI288
aI158
aI30
aI78
aI167
aI87
aI222
aI315
aI126
aI122
aI123
aI224
aI201
aI181
aI134
aI80
aI190
aI33
aI160
aI230
aI35
aI46
aI237
aI341
aI338
aI274
aI219
aI37
aI229
aI94
aI157
aI253
aI5
aI308
aI151
aI290
aI204
aI138
aI305
aI118
aI263
aI39
aI99
aI109
aI189
aI24
aI164
aI339
aI248
aI95
aI324
aI276
aI269
aI294
aI91
aI101
aI14
aI74
aI232
aI9
aI266
aI215
aI245
aI142
aI233
aI200
aI162
aI282
aI12
aI194
aI179
aI352
aI262
aI273
aI2
aI346
aI22
aI252
aI51
aI77
aI268
aI107
aI241
aI47
aI208
aI143
aI332
aI285
aI351
aI148
aI79
aI28
aI333
aI228
aI212
aI202
aI292
aI4
aI67
aI130
aI135
aI53
aI329
aI293
aI147
aI72
aI23
aI331
aI213
aI257
aI328
aI317
aI299
aI278
aI267
aI68
aI133
aI289
aI247
aI29
aI124
aI76
aI356
aI31
aI159
aI58
aI56
aI145
aI128
aI340
aI146
aI226
aI20
aI100
aI84
aI21
aI323
aI320
aI117
aI318
aI280
aI139
aI322
aI334
aI3
aI110
aI45
aI330
aI88
aI125
aI195
aI319
aI25
aI140
aI111
aI281
aI336
aI302
aI295
aI6
aI55
aI165
aI182
aI105
aI64
aI98
aI236
aI89
aI349
aI40
aI131
aI27
aI303
aI65
aI304
aI82
aI113
aI115
aI255
aI168
aI174
aI7
aI193
aI251
aI240
aI183
aI136
aI199
aI272
aI63
aI141
aI314
aI284
aI275
aI119
aI227
aI326
aI15
aI92
aI235
aI150
aI192
aI191
aI244
aI343
aI169
aI178
aI93
aI54
aI42
aI286
aI242
aI103
aI75
aI19
aI312
aI60
aI17
aI337
aI238
aI225
aI144
aI137
aI170
aI221
aI327
aI206
aI156
a.