(lp0
I332
aI163
aI134
aI303
aI90
aI225
aI219
aI211
aI87
aI64
aI143
aI305
aI138
aI207
aI329
aI177
aI168
aI150
aI91
aI204
aI345
aI170
aI294
aI128
aI37
aI324
aI299
aI21
aI378
aI316
aI314
aI153
aI282
aI161
aI250
aI18
aI62
aI326
aI106
aI322
aI375
aI263
aI122
aI72
aI239
aI368
aI58
aI51
aI43
aI24
aI66
aI172
aI234
aI339
aI175
aI33
aI284
aI169
aI55
aI14
aI63
aI50
aI88
aI328
aI45
aI264
aI197
aI236
aI179
aI60
aI152
aI94
aI272
aI362
aI369
aI23
aI320
aI7
aI70
aI118
aI79
aI129
aI319
aI235
aI9
aI253
aI124
aI140
aI186
aI336
aI39
aI298
aI27
aI133
aI151
aI274
aI193
aI231
aI162
aI267
aI256
aI283
aI308
aI353
aI199
aI30
aI206
aI67
aI114
aI377
aI42
aI300
aI148
aI189
aI379
aI59
aI301
aI292
aI142
aI202
aI107
aI334
aI295
aI347
aI155
aI77
aI146
aI117
aI287
aI1
aI56
aI182
aI158
aI123
aI196
aI75
aI137
aI278
aI136
aI268
aI183
aI191
aI311
aI32
aI279
aI286
aI215
aI257
aI315
aI270
aI20
aI5
aI325
aI121
aI297
aI335
aI275
aI185
aI312
aI252
aI108
aI97
aI80
aI74
aI290
aI337
aI82
aI141
aI101
aI105
aI321
aI98
aI47
aI100
aI10
aI302
aI68
aI249
aI259
aI83
aI351
aI370
aI165
aI338
aI227
aI365
aI224
aI34
aI342
aI232
aI198
aI38
aI360
aI111
aI187
aI367
aI228
aI340
aI226
aI374
aI209
aI92
aI44
aI4
aI341
aI372
aI171
aI13
aI28
aI242
aI277
aI359
aI29
aI112
aI2
aI310
aI157
aI95
aI357
aI318
aI327
aI102
aI247
aI99
aI296
aI176
aI84
aI104
aI350
aI35
aI248
aI363
aI380
aI113
aI49
aI61
aI229
aI116
aI52
aI69
aI16
aI135
aI373
aI12
aI178
aI149
aI109
aI245
aI96
aI180
aI258
aI356
aI266
aI255
aI213
aI352
aI233
aI164
aI317
aI220
aI115
aI120
aI110
aI192
aI15
aI246
aI41
aI71
aI348
aI6
aI195
aI364
aI130
aI223
aI221
aI156
aI361
aI381
aI22
aI218
aI57
aI276
aI208
aI184
aI216
aI349
aI194
aI181
aI53
aI281
aI291
aI119
aI330
aI46
aI190
aI103
aI307
aI237
aI145
aI238
aI260
aI160
aI11
aI331
aI344
aI81
aI280
aI269
aI285
aI346
aI293
aI306
aI217
aI125
aI131
aI65
aI31
aI167
aI25
aI3
aI40
aI288
aI78
aI323
aI36
aI304
aI144
aI132
aI76
aI205
aI343
aI354
aI127
aI212
aI201
aI154
aI86
aI254
aI210
aI26
aI230
aI371
aI19
aI243
aI289
aI139
aI73
aI8
aI48
aI358
aI273
aI309
aI355
aI262
aI261
aI188
aI251
aI240
aI203
aI17
aI147
aI366
aI54
aI200
aI244
aI376
aI85
aI126
aI173
aI313
aI93
aI271
aI333
aI166
aI89
aI174
aI159
aI241
aI214
aI222
aI265
a.