(lp0
I199
aI288
aI99
aI119
aI321
aI77
aI54
aI325
aI140
aI180
aI298
aI112
aI124
aI13
aI366
aI82
aI172
aI273
aI2
aI204
aI158
aI71
aI155
aI221
aI64
aI33
aI31
aI92
aI198
aI121
aI314
aI261
aI159
aI312
aI292
aI250
aI371
aI4
aI227
aI43
aI110
aI238
aI215
aI41
aI297
aI344
aI254
aI251
aI114
aI123
aI301
aI307
aI193
aI70
aI362
aI188
aI146
aI40
aI237
aI266
aI107
aI186
aI348
aI242
aI97
aI177
aI38
aI201
aI76
aI270
aI27
aI212
aI53
aI190
aI379
aI367
aI104
aI341
aI156
aI284
aI74
aI150
aI162
aI45
aI187
aI282
aI278
aI219
aI303
aI230
aI181
aI274
aI29
aI78
aI373
aI329
aI220
aI179
aI42
aI289
aI171
aI135
aI6
aI8
aI145
aI300
aI20
aI381
aI343
aI259
aI354
aI374
aI35
aI267
aI218
aI327
aI328
aI330
aI113
aI319
aI116
aI58
aI3
aI226
aI90
aI160
aI352
aI202
aI323
aI133
aI247
aI192
aI334
aI287
aI276
aI350
aI47
aI137
aI224
aI84
aI217
aI194
aI153
aI62
aI28
aI331
aI207
aI336
aI122
aI263
aI203
aI147
aI32
aI365
aI229
aI243
aI213
aI141
aI21
aI46
aI294
aI39
aI211
aI245
aI182
aI337
aI95
aI311
aI305
aI23
aI279
aI165
aI223
aI209
aI316
aI281
aI235
aI246
aI195
aI83
aI326
aI264
aI176
aI44
aI285
aI81
aI248
aI88
aI208
aI378
aI166
aI85
aI24
aI164
aI157
aI375
aI128
aI240
aI339
aI377
aI111
aI127
aI7
aI152
aI51
aI313
aI228
aI290
aI358
aI380
aI67
aI50
aI63
aI19
aI118
aI86
aI322
aI117
aI48
aI253
aI233
aI283
aI361
aI317
aI55
aI286
aI272
aI315
aI309
aI184
aI296
aI87
aI100
aI149
aI98
aI10
aI52
aI347
aI134
aI363
aI5
aI168
aI244
aI239
aI56
aI96
aI357
aI356
aI269
aI360
aI132
aI91
aI271
aI139
aI175
aI154
aI302
aI167
aI14
aI189
aI236
aI79
aI148
aI143
aI49
aI197
aI22
aI351
aI333
aI340
aI108
aI34
aI183
aI249
aI355
aI65
aI12
aI232
aI115
aI37
aI369
aI291
aI210
aI9
aI170
aI89
aI106
aI15
aI129
aI151
aI17
aI93
aI169
aI109
aI277
aI191
aI68
aI346
aI66
aI332
aI59
aI174
aI214
aI196
aI241
aI36
aI293
aI376
aI275
aI370
aI130
aI338
aI359
aI280
aI257
aI18
aI163
aI125
aI101
aI205
aI126
aI256
aI252
aI262
aI234
aI94
aI318
aI225
aI265
aI324
aI144
aI105
aI268
aI57
aI299
aI304
aI200
aI120
aI26
aI73
aI368
aI25
aI16
aI308
aI173
aI102
aI131
aI142
aI342
aI255
aI161
aI60
aI349
aI178
aI222
aI372
aI69
aI364
aI258
aI103
aI80
aI185
aI353
aI72
aI138
aI136
aI206
aI295
aI216
aI231
aI306
aI310
aI61
aI75
aI30
aI335
aI260
aI1
aI320
aI11
aI345
a.