(lp0
I119
aI7
aI251
aI105
aI213
aI335
aI20
aI47
aI70
aI34
aI164
aI268
aI16
aI199
aI239
aI10
aI296
aI179
aI37
aI265
aI78
aI247
aI263
aI65
aI231
aI354
aI8
aI152
aI287
aI238
aI172
aI281
aI316
aI185
aI264
aI215
aI44
aI27
aI330
aI104
aI32
aI227
aI248
aI195
aI290
aI192
aI148
aI245
aI85
aI176
aI28
aI132
aI60
aI378
aI219
aI338
aI266
aI276
aI301
aI35
aI295
aI82
aI19
aI84
aI183
aI147
aI194
aI246
aI133
aI317
aI1
aI205
aI125
aI229
aI88
aI162
aI52
aI270
aI294
aI57
aI206
aI29
aI236
aI325
aI136
aI307
aI345
aI96
aI323
aI53
aI55
aI160
aI243
aI144
aI77
aI358
aI43
aI320
aI130
aI299
aI223
aI297
aI120
aI69
aI286
aI373
aI334
aI193
aI326
aI220
aI318
aI100
aI221
aI83
aI150
aI377
aI161
aI197
aI38
aI177
aI56
aI153
aI102
aI9
aI80
aI74
aI157
aI33
aI45
aI262
aI271
aI108
aI103
aI24
aI61
aI269
aI188
aI173
aI6
aI79
aI187
aI46
aI315
aI273
aI209
aI41
aI15
aI274
aI18
aI324
aI13
aI124
aI237
aI228
aI123
aI200
aI175
aI135
aI370
aI305
aI50
aI39
aI186
aI87
aI110
aI230
aI218
aI93
aI381
aI23
aI151
aI191
aI138
aI284
aI40
aI98
aI322
aI344
aI349
aI341
aI267
aI12
aI244
aI293
aI208
aI277
aI113
aI342
aI174
aI155
aI128
aI261
aI149
aI140
aI327
aI54
aI368
aI333
aI367
aI331
aI114
aI362
aI211
aI95
aI355
aI352
aI66
aI121
aI142
aI154
aI127
aI2
aI226
aI253
aI275
aI364
aI302
aI319
aI64
aI118
aI260
aI101
aI181
aI166
aI340
aI190
aI94
aI232
aI212
aI168
aI109
aI210
aI346
aI314
aI48
aI202
aI356
aI42
aI170
aI312
aI196
aI234
aI59
aI291
aI67
aI31
aI285
aI222
aI366
aI365
aI369
aI214
aI112
aI63
aI252
aI288
aI182
aI201
aI30
aI375
aI17
aI303
aI359
aI283
aI146
aI51
aI347
aI72
aI116
aI343
aI169
aI115
aI278
aI250
aI361
aI167
aI379
aI336
aI216
aI11
aI131
aI308
aI272
aI25
aI180
aI337
aI306
aI107
aI376
aI49
aI292
aI21
aI249
aI75
aI158
aI73
aI328
aI217
aI86
aI22
aI4
aI163
aI353
aI81
aI259
aI97
aI240
aI156
aI350
aI36
aI159
aI126
aI143
aI184
aI117
aI280
aI304
aI134
aI58
aI165
aI91
aI289
aI380
aI257
aI137
aI242
aI71
aI198
aI89
aI282
aI62
aI76
aI339
aI90
aI329
aI111
aI203
aI357
aI122
aI360
aI351
aI178
aI298
aI313
aI204
aI171
aI309
aI224
aI145
aI235
aI106
aI372
aI321
aI129
aI310
aI14
aI300
aI3
aI241
aI189
aI256
aI332
aI139
aI311
aI254
aI279
aI363
aI141
aI26
aI99
aI258
aI5
aI233
aI92
aI207
aI225
aI374
aI371
aI348
aI68
aI255
a.