(lp0
I354
aI343
aI107
aI211
aI97
aI281
aI249
aI264
aI223
aI200
aI262
aI318
aI130
aI353
aI115
aI188
aI153
aI54
aI82
aI177
aI346
aI144
aI102
aI210
aI127
aI286
aI159
aI81
aI155
aI6
aI213
aI308
aI248
aI135
aI330
aI64
aI337
aI47
aI209
aI33
aI331
aI152
aI143
aI105
aI21
aI180
aI67
aI181
aI38
aI325
aI319
aI150
aI206
aI128
aI79
aI253
aI269
aI63
aI18
aI42
aI49
aI103
aI233
aI76
aI236
aI344
aI243
aI316
aI112
aI250
aI61
aI219
aI93
aI25
aI133
aI62
aI145
aI208
aI303
aI225
aI342
aI65
aI167
aI160
aI192
aI280
aI99
aI36
aI118
aI29
aI114
aI164
aI314
aI101
aI288
aI327
aI254
aI338
aI255
aI326
aI204
aI311
aI41
aI199
aI307
aI278
aI88
aI2
aI136
aI134
aI89
aI121
aI217
aI224
aI300
aI312
aI91
aI313
aI266
aI271
aI104
aI302
aI149
aI284
aI87
aI267
aI60
aI70
aI171
aI274
aI198
aI277
aI147
aI24
aI131
aI341
aI19
aI257
aI185
aI126
aI68
aI122
aI334
aI328
aI222
aI251
aI333
aI191
aI201
aI187
aI166
aI194
aI59
aI46
aI175
aI297
aI137
aI92
aI329
aI305
aI141
aI53
aI289
aI5
aI261
aI282
aI169
aI230
aI168
aI258
aI156
aI347
aI229
aI16
aI4
aI84
aI279
aI120
aI117
aI86
aI231
aI74
aI321
aI55
aI31
aI242
aI138
aI40
aI27
aI275
aI295
aI310
aI349
aI290
aI48
aI317
aI111
aI260
aI265
aI23
aI17
aI203
aI235
aI110
aI220
aI66
aI172
aI323
aI283
aI193
aI80
aI90
aI72
aI116
aI345
aI45
aI106
aI238
aI179
aI291
aI287
aI119
aI9
aI174
aI1
aI272
aI8
aI56
aI184
aI196
aI186
aI129
aI15
aI292
aI350
aI299
aI221
aI10
aI14
aI304
aI170
aI148
aI39
aI11
aI332
aI247
aI355
aI35
aI214
aI197
aI268
aI259
aI96
aI244
aI182
aI241
aI226
aI50
aI240
aI140
aI232
aI340
aI189
aI142
aI263
aI227
aI239
aI216
aI285
aI165
aI228
aI157
aI71
aI176
aI28
aI215
aI158
aI195
aI34
aI339
aI320
aI207
aI348
aI161
aI246
aI32
aI3
aI37
aI139
aI202
aI218
aI335
aI309
aI52
aI322
aI85
aI94
aI7
aI154
aI108
aI125
aI57
aI301
aI151
aI95
aI296
aI294
aI162
aI190
aI293
aI306
aI13
aI212
aI20
aI100
aI276
aI178
aI22
aI237
aI298
aI113
aI58
aI26
aI336
aI273
aI270
aI356
aI73
aI351
aI352
aI252
aI12
aI44
aI78
aI75
aI234
aI315
aI146
aI98
aI109
aI183
aI69
aI51
aI173
aI123
aI43
aI324
aI83
aI132
aI245
aI30
aI124
aI163
aI77
aI205
aI256
a.