(dp1
I1
(lp2
I125
aI128
asI2
(lp3
I84
asI3
(lp4
I345
asI4
(lp5
I159
asI5
(lp6
I65
asI6
(lp7
I257
aI259
aI260
aI261
aI262
aI120
aI121
asI7
(lp8
I228
asI9
(lp9
I153
asI10
(lp10
I4
asI11
(lp11
I88
asI12
(lp12
I82
aI87
aI90
asI13
(lp13
I118
asI14
(lp14
I118
asI15
(lp15
I343
asI16
(lp16
I343
asI17
(lp17
I73
asI18
(lp18
I259
asI19
(lp19
I259
asI20
(lp20
I259
asI21
(lp21
I194
asI22
(lp22
I81
aI97
asI23
(lp23
I265
asI24
(lp24
I265
asI25
(lp25
I117
asI26
(lp26
I128
asI27
(lp27
I128
asI28
(lp28
I252
asI29
(lp29
I201
asI30
(lp30
I321
asI31
(lp31
I75
aI81
asI32
(lp32
I155
asI33
(lp33
I252
asI34
(lp34
I139
asI35
(lp35
I133
asI36
(lp36
I125
asI37
(lp37
I65
asI38
(lp38
I258
asI39
(lp39
I228
asI40
(lp40
I50
asI41
(lp41
I308
asI42
(lp42
I252
asI43
(lp43
I293
aI296
asI44
(lp44
I219
asI45
(lp45
I186
asI46
(lp46
I65
asI47
(lp47
I65
asI48
(lp48
I59
asI49
(lp49
I201
asI50
(lp50
I59
asI51
(lp51
I59
asI52
(lp52
I157
asI53
(lp53
I65
asI54
(lp54
I73
asI55
(lp55
I161
asI56
(lp56
I347
asI57
(lp57
I208
asI58
(lp58
I116
asI59
(lp59
I343
asI60
(lp60
I90
asI61
(lp61
I93
asI63
(lp62
I346
asI64
(lp63
I122
asI65
(lp64
I121
asI66
(lp65
I265
asI68
(lp66
I122
asI69
(lp67
I282
aI283
asI70
(lp68
I49
asI71
(lp69
I224
aI228
asI72
(lp70
I51
asI73
(lp71
I51
asI74
(lp72
I223
asI75
(lp73
I277
asI76
(lp74
I197
asI77
(lp75
I167
aI201
asI78
(lp76
I219
asI79
(lp77
I208
asI82
(lp78
I252
asI83
(lp79
I252
asI85
(lp80
I90
asI87
(lp81
I252
asI88
(lp82
I252
asI89
(lp83
I277
asI90
(lp84
I277
asI91
(lp85
I128
asI92
(lp86
I346
asI93
(lp87
I346
asI94
(lp88
I346
asI95
(lp89
I81
asI96
(lp90
I65
asI97
(lp91
I51
asI99
(lp92
I346
asI101
(lp93
I64
aI67
asI102
(lp94
I319
aI324
asI103
(lp95
I90
asI104
(lp96
I275
asI105
(lp97
I330
asI106
(lp98
I127
as.