(dp1
I1
(lp2
I128
aI131
asI2
(lp3
I86
asI3
(lp4
I407
asI4
(lp5
I162
aI168
asI5
(lp6
I65
asI6
(lp7
I262
aI264
aI265
aI266
aI267
aI270
aI271
asI7
(lp8
I233
asI9
(lp9
I156
asI10
(lp10
I4
asI11
(lp11
I90
asI12
(lp12
I84
aI89
aI92
asI13
(lp13
I295
asI14
(lp14
I120
asI15
(lp15
I405
asI16
(lp16
I405
asI17
(lp17
I73
asI18
(lp18
I286
asI19
(lp19
I286
asI20
(lp20
I286
asI21
(lp21
I199
asI22
(lp22
I83
aI99
asI23
(lp23
I304
asI24
(lp24
I304
asI25
(lp25
I294
asI26
(lp26
I131
asI27
(lp27
I131
asI28
(lp28
I301
asI29
(lp29
I206
asI30
(lp30
I383
asI31
(lp31
I77
aI83
asI32
(lp32
I158
asI33
(lp33
I301
asI34
(lp34
I142
asI35
(lp35
I136
as.