(dp1
I2
(lp2
I2
asI3
(lp3
I7
aI8
asI4
(lp4
I7
aI8
asI5
(lp5
I2
aI3
asI6
(lp6
I1
aI7
aI8
asI7
(lp7
I1
aI4
aI5
asI8
(lp8
I2
aI7
asI9
(lp9
I8
asI10
(lp10
I5
asI11
(lp11
I5
asI12
(lp12
I3
aI5
aI6
asI13
(lp13
I7
aI8
as.